Archive member included to satisfy reference by file (symbol)

c:/program files (x86)/atollic/truestudio for stm32 9.0.0/armtools/bin/../lib/gcc/arm-atollic-eabi/6.3.1/../../../../arm-atollic-eabi/lib/armv7e-m/fpu\libc_nano.a(lib_a-init.o)
                              startup\startup_stm32f411xe.o (__libc_init_array)
c:/program files (x86)/atollic/truestudio for stm32 9.0.0/armtools/bin/../lib/gcc/arm-atollic-eabi/6.3.1/../../../../arm-atollic-eabi/lib/armv7e-m/fpu\libc_nano.a(lib_a-malloc.o)
                              Middlewares\ST\STM32_USB_Device_Library\Class\CDC\Src\usbd_cdc.o (malloc)
c:/program files (x86)/atollic/truestudio for stm32 9.0.0/armtools/bin/../lib/gcc/arm-atollic-eabi/6.3.1/../../../../arm-atollic-eabi/lib/armv7e-m/fpu\libc_nano.a(lib_a-memcmp.o)
                              Middlewares\Third_Party\FreeRTOS-Plus\FreeRTOS-Plus-TCP\FreeRTOS_ARP.o (memcmp)
c:/program files (x86)/atollic/truestudio for stm32 9.0.0/armtools/bin/../lib/gcc/arm-atollic-eabi/6.3.1/../../../../arm-atollic-eabi/lib/armv7e-m/fpu\libc_nano.a(lib_a-memcpy-stub.o)
                              Middlewares\ST\STM32_USB_Device_Library\App\Src\usbd_rndis_if.o (memcpy)
c:/program files (x86)/atollic/truestudio for stm32 9.0.0/armtools/bin/../lib/gcc/arm-atollic-eabi/6.3.1/../../../../arm-atollic-eabi/lib/armv7e-m/fpu\libc_nano.a(lib_a-memmove.o)
                              Middlewares\Third_Party\FreeRTOS-Plus\FreeRTOS-Plus-TCP\FreeRTOS_IP.o (memmove)
c:/program files (x86)/atollic/truestudio for stm32 9.0.0/armtools/bin/../lib/gcc/arm-atollic-eabi/6.3.1/../../../../arm-atollic-eabi/lib/armv7e-m/fpu\libc_nano.a(lib_a-memset.o)
                              Middlewares\Third_Party\FreeRTOS\Source\tasks.o (memset)
c:/program files (x86)/atollic/truestudio for stm32 9.0.0/armtools/bin/../lib/gcc/arm-atollic-eabi/6.3.1/../../../../arm-atollic-eabi/lib/armv7e-m/fpu\libc_nano.a(lib_a-nano-freer.o)
                              c:/program files (x86)/atollic/truestudio for stm32 9.0.0/armtools/bin/../lib/gcc/arm-atollic-eabi/6.3.1/../../../../arm-atollic-eabi/lib/armv7e-m/fpu\libc_nano.a(lib_a-malloc.o) (_free_r)
c:/program files (x86)/atollic/truestudio for stm32 9.0.0/armtools/bin/../lib/gcc/arm-atollic-eabi/6.3.1/../../../../arm-atollic-eabi/lib/armv7e-m/fpu\libc_nano.a(lib_a-nano-mallocr.o)
                              c:/program files (x86)/atollic/truestudio for stm32 9.0.0/armtools/bin/../lib/gcc/arm-atollic-eabi/6.3.1/../../../../arm-atollic-eabi/lib/armv7e-m/fpu\libc_nano.a(lib_a-malloc.o) (_malloc_r)
c:/program files (x86)/atollic/truestudio for stm32 9.0.0/armtools/bin/../lib/gcc/arm-atollic-eabi/6.3.1/../../../../arm-atollic-eabi/lib/armv7e-m/fpu\libc_nano.a(lib_a-rand.o)
                              Src\main.o (rand)
c:/program files (x86)/atollic/truestudio for stm32 9.0.0/armtools/bin/../lib/gcc/arm-atollic-eabi/6.3.1/../../../../arm-atollic-eabi/lib/armv7e-m/fpu\libc_nano.a(lib_a-sbrkr.o)
                              c:/program files (x86)/atollic/truestudio for stm32 9.0.0/armtools/bin/../lib/gcc/arm-atollic-eabi/6.3.1/../../../../arm-atollic-eabi/lib/armv7e-m/fpu\libc_nano.a(lib_a-nano-mallocr.o) (_sbrk_r)
c:/program files (x86)/atollic/truestudio for stm32 9.0.0/armtools/bin/../lib/gcc/arm-atollic-eabi/6.3.1/../../../../arm-atollic-eabi/lib/armv7e-m/fpu\libc_nano.a(lib_a-strcasecmp.o)
                              Src\main.o (strcasecmp)
c:/program files (x86)/atollic/truestudio for stm32 9.0.0/armtools/bin/../lib/gcc/arm-atollic-eabi/6.3.1/../../../../arm-atollic-eabi/lib/armv7e-m/fpu\libc_nano.a(lib_a-strcpy.o)
                              Middlewares\Third_Party\FreeRTOS-Plus\FreeRTOS-Plus-TCP\FreeRTOS_DNS.o (strcpy)
c:/program files (x86)/atollic/truestudio for stm32 9.0.0/armtools/bin/../lib/gcc/arm-atollic-eabi/6.3.1/../../../../arm-atollic-eabi/lib/armv7e-m/fpu\libc_nano.a(lib_a-strlen.o)
                              Middlewares\Third_Party\FreeRTOS-Plus\FreeRTOS-Plus-TCP\FreeRTOS_DHCP.o (strlen)
c:/program files (x86)/atollic/truestudio for stm32 9.0.0/armtools/bin/../lib/gcc/arm-atollic-eabi/6.3.1/../../../../arm-atollic-eabi/lib/armv7e-m/fpu\libc_nano.a(lib_a-strncmp.o)
                              Middlewares\Third_Party\FreeRTOS-Plus\FreeRTOS-Plus-TCP\FreeRTOS_DNS.o (strncmp)
c:/program files (x86)/atollic/truestudio for stm32 9.0.0/armtools/bin/../lib/gcc/arm-atollic-eabi/6.3.1/../../../../arm-atollic-eabi/lib/armv7e-m/fpu\libc_nano.a(lib_a-strncpy.o)
                              Middlewares\Third_Party\FreeRTOS-Plus\FreeRTOS-Plus-TCP\FreeRTOS_DNS.o (strncpy)
c:/program files (x86)/atollic/truestudio for stm32 9.0.0/armtools/bin/../lib/gcc/arm-atollic-eabi/6.3.1/../../../../arm-atollic-eabi/lib/armv7e-m/fpu\libc_nano.a(lib_a-impure.o)
                              c:/program files (x86)/atollic/truestudio for stm32 9.0.0/armtools/bin/../lib/gcc/arm-atollic-eabi/6.3.1/../../../../arm-atollic-eabi/lib/armv7e-m/fpu\libc_nano.a(lib_a-malloc.o) (_impure_ptr)
c:/program files (x86)/atollic/truestudio for stm32 9.0.0/armtools/bin/../lib/gcc/arm-atollic-eabi/6.3.1/../../../../arm-atollic-eabi/lib/armv7e-m/fpu\libc_nano.a(lib_a-locale.o)
                              c:/program files (x86)/atollic/truestudio for stm32 9.0.0/armtools/bin/../lib/gcc/arm-atollic-eabi/6.3.1/../../../../arm-atollic-eabi/lib/armv7e-m/fpu\libc_nano.a(lib_a-strcasecmp.o) (__locale_ctype_ptr)
c:/program files (x86)/atollic/truestudio for stm32 9.0.0/armtools/bin/../lib/gcc/arm-atollic-eabi/6.3.1/../../../../arm-atollic-eabi/lib/armv7e-m/fpu\libc_nano.a(lib_a-mbtowc_r.o)
                              c:/program files (x86)/atollic/truestudio for stm32 9.0.0/armtools/bin/../lib/gcc/arm-atollic-eabi/6.3.1/../../../../arm-atollic-eabi/lib/armv7e-m/fpu\libc_nano.a(lib_a-locale.o) (__ascii_mbtowc)
c:/program files (x86)/atollic/truestudio for stm32 9.0.0/armtools/bin/../lib/gcc/arm-atollic-eabi/6.3.1/../../../../arm-atollic-eabi/lib/armv7e-m/fpu\libc_nano.a(lib_a-mlock.o)
                              c:/program files (x86)/atollic/truestudio for stm32 9.0.0/armtools/bin/../lib/gcc/arm-atollic-eabi/6.3.1/../../../../arm-atollic-eabi/lib/armv7e-m/fpu\libc_nano.a(lib_a-nano-freer.o) (__malloc_lock)
c:/program files (x86)/atollic/truestudio for stm32 9.0.0/armtools/bin/../lib/gcc/arm-atollic-eabi/6.3.1/../../../../arm-atollic-eabi/lib/armv7e-m/fpu\libc_nano.a(lib_a-reent.o)
                              c:/program files (x86)/atollic/truestudio for stm32 9.0.0/armtools/bin/../lib/gcc/arm-atollic-eabi/6.3.1/../../../../arm-atollic-eabi/lib/armv7e-m/fpu\libc_nano.a(lib_a-sbrkr.o) (errno)
c:/program files (x86)/atollic/truestudio for stm32 9.0.0/armtools/bin/../lib/gcc/arm-atollic-eabi/6.3.1/../../../../arm-atollic-eabi/lib/armv7e-m/fpu\libc_nano.a(lib_a-strcmp.o)
                              c:/program files (x86)/atollic/truestudio for stm32 9.0.0/armtools/bin/../lib/gcc/arm-atollic-eabi/6.3.1/../../../../arm-atollic-eabi/lib/armv7e-m/fpu\libc_nano.a(lib_a-locale.o) (strcmp)
c:/program files (x86)/atollic/truestudio for stm32 9.0.0/armtools/bin/../lib/gcc/arm-atollic-eabi/6.3.1/../../../../arm-atollic-eabi/lib/armv7e-m/fpu\libc_nano.a(lib_a-wctomb_r.o)
                              c:/program files (x86)/atollic/truestudio for stm32 9.0.0/armtools/bin/../lib/gcc/arm-atollic-eabi/6.3.1/../../../../arm-atollic-eabi/lib/armv7e-m/fpu\libc_nano.a(lib_a-locale.o) (__ascii_wctomb)
c:/program files (x86)/atollic/truestudio for stm32 9.0.0/armtools/bin/../lib/gcc/arm-atollic-eabi/6.3.1/../../../../arm-atollic-eabi/lib/armv7e-m/fpu\libc_nano.a(lib_a-ctype_.o)
                              c:/program files (x86)/atollic/truestudio for stm32 9.0.0/armtools/bin/../lib/gcc/arm-atollic-eabi/6.3.1/../../../../arm-atollic-eabi/lib/armv7e-m/fpu\libc_nano.a(lib_a-locale.o) (_ctype_)
c:/program files (x86)/atollic/truestudio for stm32 9.0.0/armtools/bin/../lib/gcc/arm-atollic-eabi/6.3.1/armv7e-m/fpu\libgcc.a(_aeabi_uldivmod.o)
                              Drivers\STM32F4xx_HAL_Driver\Src\stm32f4xx_hal_rcc.o (__aeabi_uldivmod)
c:/program files (x86)/atollic/truestudio for stm32 9.0.0/armtools/bin/../lib/gcc/arm-atollic-eabi/6.3.1/armv7e-m/fpu\libgcc.a(_udivmoddi4.o)
                              c:/program files (x86)/atollic/truestudio for stm32 9.0.0/armtools/bin/../lib/gcc/arm-atollic-eabi/6.3.1/armv7e-m/fpu\libgcc.a(_aeabi_uldivmod.o) (__udivmoddi4)
c:/program files (x86)/atollic/truestudio for stm32 9.0.0/armtools/bin/../lib/gcc/arm-atollic-eabi/6.3.1/armv7e-m/fpu\libgcc.a(_dvmd_tls.o)
                              c:/program files (x86)/atollic/truestudio for stm32 9.0.0/armtools/bin/../lib/gcc/arm-atollic-eabi/6.3.1/armv7e-m/fpu\libgcc.a(_aeabi_uldivmod.o) (__aeabi_ldiv0)
c:/program files (x86)/atollic/truestudio for stm32 9.0.0/armtools/bin/../lib/gcc/arm-atollic-eabi/6.3.1/../../../../arm-atollic-eabi/lib/armv7e-m/fpu\libnosys.a(sbrk.o)
                              c:/program files (x86)/atollic/truestudio for stm32 9.0.0/armtools/bin/../lib/gcc/arm-atollic-eabi/6.3.1/../../../../arm-atollic-eabi/lib/armv7e-m/fpu\libc_nano.a(lib_a-sbrkr.o) (_sbrk)

Allocating common symbols
Common symbol       size              file

hUsbDeviceFS        0x224             Middlewares\ST\STM32_USB_Device_Library\App\Src\usb_device.o
defaultTaskHandle   0x4               Src\main.o
errno               0x4               c:/program files (x86)/atollic/truestudio for stm32 9.0.0/armtools/bin/../lib/gcc/arm-atollic-eabi/6.3.1/../../../../arm-atollic-eabi/lib/armv7e-m/fpu\libc_nano.a(lib_a-reent.o)
timestamp           0x8               Middlewares\ST\STM32_USB_Device_Library\App\Src\usbd_rndis_if.o
hpcd_USB_OTG_FS     0x3f0             Middlewares\ST\STM32_USB_Device_Library\App\Src\usbd_conf.o
uwTick              0x4               Drivers\STM32F4xx_HAL_Driver\Src\stm32f4xx_hal.o
xQueueRegistry      0x40              Middlewares\Third_Party\FreeRTOS\Source\queue.o
xBoundTCPSocketsList
                    0x14              Middlewares\Third_Party\FreeRTOS-Plus\FreeRTOS-Plus-TCP\FreeRTOS_Sockets.o
pFlash              0x20              Drivers\STM32F4xx_HAL_Driver\Src\stm32f4xx_hal_flash.o
UserTxBufferFS      0x82c             Middlewares\ST\STM32_USB_Device_Library\App\Src\usbd_rndis_if.o
xBoundUDPSocketsList
                    0x14              Middlewares\Third_Party\FreeRTOS-Plus\FreeRTOS-Plus-TCP\FreeRTOS_Sockets.o
htim1               0x3c              Src\stm32f4xx_hal_timebase_TIM.o
usbd_composite_class_data
                    0x190             Middlewares\ST\STM32_USB_Device_Library\Class\Composite\Src\usbd_composite.o
USBD_StrDesc        0x200             Middlewares\ST\STM32_USB_Device_Library\App\Src\usbd_desc.o

Discarded input sections

 .text          0x00000000        0x0 c:/program files (x86)/atollic/truestudio for stm32 9.0.0/armtools/bin/../lib/gcc/arm-atollic-eabi/6.3.1/armv7e-m/fpu/crti.o
 .data          0x00000000        0x0 c:/program files (x86)/atollic/truestudio for stm32 9.0.0/armtools/bin/../lib/gcc/arm-atollic-eabi/6.3.1/armv7e-m/fpu/crti.o
 .bss           0x00000000        0x0 c:/program files (x86)/atollic/truestudio for stm32 9.0.0/armtools/bin/../lib/gcc/arm-atollic-eabi/6.3.1/armv7e-m/fpu/crti.o
 .data          0x00000000        0x4 c:/program files (x86)/atollic/truestudio for stm32 9.0.0/armtools/bin/../lib/gcc/arm-atollic-eabi/6.3.1/armv7e-m/fpu/crtbegin.o
 .text          0x00000000        0x0 Drivers\STM32F4xx_HAL_Driver\Src\stm32f4xx_hal.o
 .data          0x00000000        0x0 Drivers\STM32F4xx_HAL_Driver\Src\stm32f4xx_hal.o
 .bss           0x00000000        0x0 Drivers\STM32F4xx_HAL_Driver\Src\stm32f4xx_hal.o
 .text.HAL_MspInit
                0x00000000        0x2 Drivers\STM32F4xx_HAL_Driver\Src\stm32f4xx_hal.o
 .text.HAL_MspDeInit
                0x00000000        0x2 Drivers\STM32F4xx_HAL_Driver\Src\stm32f4xx_hal.o
 .text.HAL_DeInit
                0x00000000       0x2c Drivers\STM32F4xx_HAL_Driver\Src\stm32f4xx_hal.o
 .text.HAL_InitTick
                0x00000000       0x48 Drivers\STM32F4xx_HAL_Driver\Src\stm32f4xx_hal.o
 .text.HAL_GetTickPrio
                0x00000000        0xc Drivers\STM32F4xx_HAL_Driver\Src\stm32f4xx_hal.o
 .text.HAL_SetTickFreq
                0x00000000       0x24 Drivers\STM32F4xx_HAL_Driver\Src\stm32f4xx_hal.o
 .text.HAL_GetTickFreq
                0x00000000        0xc Drivers\STM32F4xx_HAL_Driver\Src\stm32f4xx_hal.o
 .text.HAL_SuspendTick
                0x00000000       0x10 Drivers\STM32F4xx_HAL_Driver\Src\stm32f4xx_hal.o
 .text.HAL_ResumeTick
                0x00000000       0x10 Drivers\STM32F4xx_HAL_Driver\Src\stm32f4xx_hal.o
 .text.HAL_GetHalVersion
                0x00000000        0x8 Drivers\STM32F4xx_HAL_Driver\Src\stm32f4xx_hal.o
 .text.HAL_GetREVID
                0x00000000        0xc Drivers\STM32F4xx_HAL_Driver\Src\stm32f4xx_hal.o
 .text.HAL_GetDEVID
                0x00000000       0x10 Drivers\STM32F4xx_HAL_Driver\Src\stm32f4xx_hal.o
 .text.HAL_DBGMCU_EnableDBGSleepMode
                0x00000000       0x10 Drivers\STM32F4xx_HAL_Driver\Src\stm32f4xx_hal.o
 .text.HAL_DBGMCU_DisableDBGSleepMode
                0x00000000       0x10 Drivers\STM32F4xx_HAL_Driver\Src\stm32f4xx_hal.o
 .text.HAL_DBGMCU_EnableDBGStopMode
                0x00000000       0x10 Drivers\STM32F4xx_HAL_Driver\Src\stm32f4xx_hal.o
 .text.HAL_DBGMCU_DisableDBGStopMode
                0x00000000       0x10 Drivers\STM32F4xx_HAL_Driver\Src\stm32f4xx_hal.o
 .text.HAL_DBGMCU_EnableDBGStandbyMode
                0x00000000       0x10 Drivers\STM32F4xx_HAL_Driver\Src\stm32f4xx_hal.o
 .text.HAL_DBGMCU_DisableDBGStandbyMode
                0x00000000       0x10 Drivers\STM32F4xx_HAL_Driver\Src\stm32f4xx_hal.o
 .text.HAL_EnableCompensationCell
                0x00000000        0xc Drivers\STM32F4xx_HAL_Driver\Src\stm32f4xx_hal.o
 .text.HAL_DisableCompensationCell
                0x00000000        0xc Drivers\STM32F4xx_HAL_Driver\Src\stm32f4xx_hal.o
 .text.HAL_GetUID
                0x00000000       0x20 Drivers\STM32F4xx_HAL_Driver\Src\stm32f4xx_hal.o
 .data.uwTickPrio
                0x00000000        0x4 Drivers\STM32F4xx_HAL_Driver\Src\stm32f4xx_hal.o
 .text          0x00000000        0x0 Drivers\STM32F4xx_HAL_Driver\Src\stm32f4xx_hal_cortex.o
 .data          0x00000000        0x0 Drivers\STM32F4xx_HAL_Driver\Src\stm32f4xx_hal_cortex.o
 .bss           0x00000000        0x0 Drivers\STM32F4xx_HAL_Driver\Src\stm32f4xx_hal_cortex.o
 .text.HAL_NVIC_DisableIRQ
                0x00000000       0x1c Drivers\STM32F4xx_HAL_Driver\Src\stm32f4xx_hal_cortex.o
 .text.HAL_NVIC_SystemReset
                0x00000000       0x24 Drivers\STM32F4xx_HAL_Driver\Src\stm32f4xx_hal_cortex.o
 .text.HAL_MPU_Disable
                0x00000000       0x20 Drivers\STM32F4xx_HAL_Driver\Src\stm32f4xx_hal_cortex.o
 .text.HAL_MPU_Enable
                0x00000000       0x24 Drivers\STM32F4xx_HAL_Driver\Src\stm32f4xx_hal_cortex.o
 .text.HAL_MPU_ConfigRegion
                0x00000000       0x50 Drivers\STM32F4xx_HAL_Driver\Src\stm32f4xx_hal_cortex.o
 .text.HAL_NVIC_GetPriorityGrouping
                0x00000000       0x10 Drivers\STM32F4xx_HAL_Driver\Src\stm32f4xx_hal_cortex.o
 .text.HAL_NVIC_GetPriority
                0x00000000       0x58 Drivers\STM32F4xx_HAL_Driver\Src\stm32f4xx_hal_cortex.o
 .text.HAL_NVIC_SetPendingIRQ
                0x00000000       0x1c Drivers\STM32F4xx_HAL_Driver\Src\stm32f4xx_hal_cortex.o
 .text.HAL_NVIC_GetPendingIRQ
                0x00000000       0x1c Drivers\STM32F4xx_HAL_Driver\Src\stm32f4xx_hal_cortex.o
 .text.HAL_NVIC_ClearPendingIRQ
                0x00000000       0x1c Drivers\STM32F4xx_HAL_Driver\Src\stm32f4xx_hal_cortex.o
 .text.HAL_NVIC_GetActive
                0x00000000       0x1c Drivers\STM32F4xx_HAL_Driver\Src\stm32f4xx_hal_cortex.o
 .text.HAL_SYSTICK_Callback
                0x00000000        0x2 Drivers\STM32F4xx_HAL_Driver\Src\stm32f4xx_hal_cortex.o
 .text.HAL_SYSTICK_IRQHandler
                0x00000000        0x8 Drivers\STM32F4xx_HAL_Driver\Src\stm32f4xx_hal_cortex.o
 .text          0x00000000        0x0 Drivers\STM32F4xx_HAL_Driver\Src\stm32f4xx_hal_dma.o
 .data          0x00000000        0x0 Drivers\STM32F4xx_HAL_Driver\Src\stm32f4xx_hal_dma.o
 .bss           0x00000000        0x0 Drivers\STM32F4xx_HAL_Driver\Src\stm32f4xx_hal_dma.o
 .text.DMA_CalcBaseAndBitshift
                0x00000000       0x2c Drivers\STM32F4xx_HAL_Driver\Src\stm32f4xx_hal_dma.o
 .text.HAL_DMA_Init
                0x00000000       0xfc Drivers\STM32F4xx_HAL_Driver\Src\stm32f4xx_hal_dma.o
 .text.HAL_DMA_DeInit
                0x00000000       0x48 Drivers\STM32F4xx_HAL_Driver\Src\stm32f4xx_hal_dma.o
 .text.HAL_DMA_Start
                0x00000000       0x54 Drivers\STM32F4xx_HAL_Driver\Src\stm32f4xx_hal_dma.o
 .text.HAL_DMA_Start_IT
                0x00000000       0x7c Drivers\STM32F4xx_HAL_Driver\Src\stm32f4xx_hal_dma.o
 .text.HAL_DMA_Abort
                0x00000000       0x86 Drivers\STM32F4xx_HAL_Driver\Src\stm32f4xx_hal_dma.o
 .text.HAL_DMA_Abort_IT
                0x00000000       0x24 Drivers\STM32F4xx_HAL_Driver\Src\stm32f4xx_hal_dma.o
 .text.HAL_DMA_PollForTransfer
                0x00000000      0x112 Drivers\STM32F4xx_HAL_Driver\Src\stm32f4xx_hal_dma.o
 .text.HAL_DMA_IRQHandler
                0x00000000      0x174 Drivers\STM32F4xx_HAL_Driver\Src\stm32f4xx_hal_dma.o
 .text.HAL_DMA_RegisterCallback
                0x00000000       0x50 Drivers\STM32F4xx_HAL_Driver\Src\stm32f4xx_hal_dma.o
 .text.HAL_DMA_UnRegisterCallback
                0x00000000       0x5c Drivers\STM32F4xx_HAL_Driver\Src\stm32f4xx_hal_dma.o
 .text.HAL_DMA_GetState
                0x00000000        0x6 Drivers\STM32F4xx_HAL_Driver\Src\stm32f4xx_hal_dma.o
 .text.HAL_DMA_GetError
                0x00000000        0x4 Drivers\STM32F4xx_HAL_Driver\Src\stm32f4xx_hal_dma.o
 .rodata.flagBitshiftOffset.8849
                0x00000000        0x8 Drivers\STM32F4xx_HAL_Driver\Src\stm32f4xx_hal_dma.o
 .debug_info    0x00000000     0x1254 Drivers\STM32F4xx_HAL_Driver\Src\stm32f4xx_hal_dma.o
 .debug_abbrev  0x00000000      0x33d Drivers\STM32F4xx_HAL_Driver\Src\stm32f4xx_hal_dma.o
 .debug_loc     0x00000000      0x727 Drivers\STM32F4xx_HAL_Driver\Src\stm32f4xx_hal_dma.o
 .debug_aranges
                0x00000000       0x80 Drivers\STM32F4xx_HAL_Driver\Src\stm32f4xx_hal_dma.o
 .debug_ranges  0x00000000       0xc8 Drivers\STM32F4xx_HAL_Driver\Src\stm32f4xx_hal_dma.o
 .debug_line    0x00000000      0x5f7 Drivers\STM32F4xx_HAL_Driver\Src\stm32f4xx_hal_dma.o
 .debug_str     0x00000000      0xbe6 Drivers\STM32F4xx_HAL_Driver\Src\stm32f4xx_hal_dma.o
 .comment       0x00000000       0x7d Drivers\STM32F4xx_HAL_Driver\Src\stm32f4xx_hal_dma.o
 .debug_frame   0x00000000      0x150 Drivers\STM32F4xx_HAL_Driver\Src\stm32f4xx_hal_dma.o
 .ARM.attributes
                0x00000000       0x39 Drivers\STM32F4xx_HAL_Driver\Src\stm32f4xx_hal_dma.o
 .text          0x00000000        0x0 Drivers\STM32F4xx_HAL_Driver\Src\stm32f4xx_hal_dma_ex.o
 .data          0x00000000        0x0 Drivers\STM32F4xx_HAL_Driver\Src\stm32f4xx_hal_dma_ex.o
 .bss           0x00000000        0x0 Drivers\STM32F4xx_HAL_Driver\Src\stm32f4xx_hal_dma_ex.o
 .text.HAL_DMAEx_MultiBufferStart
                0x00000000       0x5a Drivers\STM32F4xx_HAL_Driver\Src\stm32f4xx_hal_dma_ex.o
 .text.HAL_DMAEx_MultiBufferStart_IT
                0x00000000      0x3e8 Drivers\STM32F4xx_HAL_Driver\Src\stm32f4xx_hal_dma_ex.o
 .text.HAL_DMAEx_ChangeMemory
                0x00000000        0xe Drivers\STM32F4xx_HAL_Driver\Src\stm32f4xx_hal_dma_ex.o
 .debug_info    0x00000000      0xde0 Drivers\STM32F4xx_HAL_Driver\Src\stm32f4xx_hal_dma_ex.o
 .debug_abbrev  0x00000000      0x24b Drivers\STM32F4xx_HAL_Driver\Src\stm32f4xx_hal_dma_ex.o
 .debug_loc     0x00000000      0x452 Drivers\STM32F4xx_HAL_Driver\Src\stm32f4xx_hal_dma_ex.o
 .debug_aranges
                0x00000000       0x30 Drivers\STM32F4xx_HAL_Driver\Src\stm32f4xx_hal_dma_ex.o
 .debug_ranges  0x00000000       0x50 Drivers\STM32F4xx_HAL_Driver\Src\stm32f4xx_hal_dma_ex.o
 .debug_line    0x00000000      0x619 Drivers\STM32F4xx_HAL_Driver\Src\stm32f4xx_hal_dma_ex.o
 .debug_str     0x00000000      0x9db Drivers\STM32F4xx_HAL_Driver\Src\stm32f4xx_hal_dma_ex.o
 .comment       0x00000000       0x7d Drivers\STM32F4xx_HAL_Driver\Src\stm32f4xx_hal_dma_ex.o
 .debug_frame   0x00000000       0x58 Drivers\STM32F4xx_HAL_Driver\Src\stm32f4xx_hal_dma_ex.o
 .ARM.attributes
                0x00000000       0x39 Drivers\STM32F4xx_HAL_Driver\Src\stm32f4xx_hal_dma_ex.o
 .text          0x00000000        0x0 Drivers\STM32F4xx_HAL_Driver\Src\stm32f4xx_hal_flash.o
 .data          0x00000000        0x0 Drivers\STM32F4xx_HAL_Driver\Src\stm32f4xx_hal_flash.o
 .bss           0x00000000        0x0 Drivers\STM32F4xx_HAL_Driver\Src\stm32f4xx_hal_flash.o
 .text.FLASH_Program_DoubleWord
                0x00000000       0x28 Drivers\STM32F4xx_HAL_Driver\Src\stm32f4xx_hal_flash.o
 .text.FLASH_Program_Word
                0x00000000       0x24 Drivers\STM32F4xx_HAL_Driver\Src\stm32f4xx_hal_flash.o
 .text.FLASH_Program_HalfWord
                0x00000000       0x24 Drivers\STM32F4xx_HAL_Driver\Src\stm32f4xx_hal_flash.o
 .text.FLASH_SetErrorCode
                0x00000000       0x8c Drivers\STM32F4xx_HAL_Driver\Src\stm32f4xx_hal_flash.o
 .text.HAL_FLASH_Program_IT
                0x00000000       0x74 Drivers\STM32F4xx_HAL_Driver\Src\stm32f4xx_hal_flash.o
 .text.HAL_FLASH_EndOfOperationCallback
                0x00000000        0x2 Drivers\STM32F4xx_HAL_Driver\Src\stm32f4xx_hal_flash.o
 .text.HAL_FLASH_OperationErrorCallback
                0x00000000        0x2 Drivers\STM32F4xx_HAL_Driver\Src\stm32f4xx_hal_flash.o
 .text.HAL_FLASH_IRQHandler
                0x00000000       0xc4 Drivers\STM32F4xx_HAL_Driver\Src\stm32f4xx_hal_flash.o
 .text.HAL_FLASH_Unlock
                0x00000000       0x24 Drivers\STM32F4xx_HAL_Driver\Src\stm32f4xx_hal_flash.o
 .text.HAL_FLASH_Lock
                0x00000000       0x14 Drivers\STM32F4xx_HAL_Driver\Src\stm32f4xx_hal_flash.o
 .text.HAL_FLASH_OB_Unlock
                0x00000000       0x24 Drivers\STM32F4xx_HAL_Driver\Src\stm32f4xx_hal_flash.o
 .text.HAL_FLASH_OB_Lock
                0x00000000       0x14 Drivers\STM32F4xx_HAL_Driver\Src\stm32f4xx_hal_flash.o
 .text.HAL_FLASH_GetError
                0x00000000        0xc Drivers\STM32F4xx_HAL_Driver\Src\stm32f4xx_hal_flash.o
 .text.FLASH_WaitForLastOperation
                0x00000000       0x54 Drivers\STM32F4xx_HAL_Driver\Src\stm32f4xx_hal_flash.o
 .text.HAL_FLASH_Program
                0x00000000       0x90 Drivers\STM32F4xx_HAL_Driver\Src\stm32f4xx_hal_flash.o
 .text.HAL_FLASH_OB_Launch
                0x00000000       0x18 Drivers\STM32F4xx_HAL_Driver\Src\stm32f4xx_hal_flash.o
 .debug_info    0x00000000      0xf55 Drivers\STM32F4xx_HAL_Driver\Src\stm32f4xx_hal_flash.o
 .debug_abbrev  0x00000000      0x369 Drivers\STM32F4xx_HAL_Driver\Src\stm32f4xx_hal_flash.o
 .debug_loc     0x00000000      0x2d9 Drivers\STM32F4xx_HAL_Driver\Src\stm32f4xx_hal_flash.o
 .debug_aranges
                0x00000000       0x90 Drivers\STM32F4xx_HAL_Driver\Src\stm32f4xx_hal_flash.o
 .debug_ranges  0x00000000       0xb0 Drivers\STM32F4xx_HAL_Driver\Src\stm32f4xx_hal_flash.o
 .debug_line    0x00000000      0x4e1 Drivers\STM32F4xx_HAL_Driver\Src\stm32f4xx_hal_flash.o
 .debug_str     0x00000000      0x9c4 Drivers\STM32F4xx_HAL_Driver\Src\stm32f4xx_hal_flash.o
 .comment       0x00000000       0x7d Drivers\STM32F4xx_HAL_Driver\Src\stm32f4xx_hal_flash.o
 .debug_frame   0x00000000      0x154 Drivers\STM32F4xx_HAL_Driver\Src\stm32f4xx_hal_flash.o
 .ARM.attributes
                0x00000000       0x39 Drivers\STM32F4xx_HAL_Driver\Src\stm32f4xx_hal_flash.o
 COMMON         0x00000000       0x20 Drivers\STM32F4xx_HAL_Driver\Src\stm32f4xx_hal_flash.o
 .text          0x00000000        0x0 Drivers\STM32F4xx_HAL_Driver\Src\stm32f4xx_hal_flash_ex.o
 .data          0x00000000        0x0 Drivers\STM32F4xx_HAL_Driver\Src\stm32f4xx_hal_flash_ex.o
 .bss           0x00000000        0x0 Drivers\STM32F4xx_HAL_Driver\Src\stm32f4xx_hal_flash_ex.o
 .text.FLASH_MassErase.isra.0
                0x00000000       0x24 Drivers\STM32F4xx_HAL_Driver\Src\stm32f4xx_hal_flash_ex.o
 .text.HAL_FLASHEx_OBProgram
                0x00000000       0xb8 Drivers\STM32F4xx_HAL_Driver\Src\stm32f4xx_hal_flash_ex.o
 .text.HAL_FLASHEx_OBGetConfig
                0x00000000       0x48 Drivers\STM32F4xx_HAL_Driver\Src\stm32f4xx_hal_flash_ex.o
 .text.HAL_FLASHEx_AdvOBProgram
                0x00000000       0x40 Drivers\STM32F4xx_HAL_Driver\Src\stm32f4xx_hal_flash_ex.o
 .text.HAL_FLASHEx_AdvOBGetConfig
                0x00000000        0xc Drivers\STM32F4xx_HAL_Driver\Src\stm32f4xx_hal_flash_ex.o
 .text.HAL_FLASHEx_OB_SelectPCROP
                0x00000000       0x14 Drivers\STM32F4xx_HAL_Driver\Src\stm32f4xx_hal_flash_ex.o
 .text.HAL_FLASHEx_OB_DeSelectPCROP
                0x00000000       0x14 Drivers\STM32F4xx_HAL_Driver\Src\stm32f4xx_hal_flash_ex.o
 .text.FLASH_Erase_Sector
                0x00000000       0x4c Drivers\STM32F4xx_HAL_Driver\Src\stm32f4xx_hal_flash_ex.o
 .text.HAL_FLASHEx_Erase_IT
                0x00000000       0x60 Drivers\STM32F4xx_HAL_Driver\Src\stm32f4xx_hal_flash_ex.o
 .text.FLASH_FlushCaches
                0x00000000       0x58 Drivers\STM32F4xx_HAL_Driver\Src\stm32f4xx_hal_flash_ex.o
 .text.HAL_FLASHEx_Erase
                0x00000000       0x9c Drivers\STM32F4xx_HAL_Driver\Src\stm32f4xx_hal_flash_ex.o
 .debug_info    0x00000000     0x125d Drivers\STM32F4xx_HAL_Driver\Src\stm32f4xx_hal_flash_ex.o
 .debug_abbrev  0x00000000      0x365 Drivers\STM32F4xx_HAL_Driver\Src\stm32f4xx_hal_flash_ex.o
 .debug_loc     0x00000000      0x4f3 Drivers\STM32F4xx_HAL_Driver\Src\stm32f4xx_hal_flash_ex.o
 .debug_aranges
                0x00000000       0x70 Drivers\STM32F4xx_HAL_Driver\Src\stm32f4xx_hal_flash_ex.o
 .debug_ranges  0x00000000      0x110 Drivers\STM32F4xx_HAL_Driver\Src\stm32f4xx_hal_flash_ex.o
 .debug_line    0x00000000      0x4fe Drivers\STM32F4xx_HAL_Driver\Src\stm32f4xx_hal_flash_ex.o
 .debug_str     0x00000000      0xaed Drivers\STM32F4xx_HAL_Driver\Src\stm32f4xx_hal_flash_ex.o
 .comment       0x00000000       0x7d Drivers\STM32F4xx_HAL_Driver\Src\stm32f4xx_hal_flash_ex.o
 .debug_frame   0x00000000       0xf0 Drivers\STM32F4xx_HAL_Driver\Src\stm32f4xx_hal_flash_ex.o
 .ARM.attributes
                0x00000000       0x39 Drivers\STM32F4xx_HAL_Driver\Src\stm32f4xx_hal_flash_ex.o
 .text          0x00000000        0x0 Drivers\STM32F4xx_HAL_Driver\Src\stm32f4xx_hal_flash_ramfunc.o
 .data          0x00000000        0x0 Drivers\STM32F4xx_HAL_Driver\Src\stm32f4xx_hal_flash_ramfunc.o
 .bss           0x00000000        0x0 Drivers\STM32F4xx_HAL_Driver\Src\stm32f4xx_hal_flash_ramfunc.o
 .RamFunc       0x00000000       0xc0 Drivers\STM32F4xx_HAL_Driver\Src\stm32f4xx_hal_flash_ramfunc.o
 .debug_info    0x00000000      0xc1c Drivers\STM32F4xx_HAL_Driver\Src\stm32f4xx_hal_flash_ramfunc.o
 .debug_abbrev  0x00000000      0x1d1 Drivers\STM32F4xx_HAL_Driver\Src\stm32f4xx_hal_flash_ramfunc.o
 .debug_aranges
                0x00000000       0x38 Drivers\STM32F4xx_HAL_Driver\Src\stm32f4xx_hal_flash_ramfunc.o
 .debug_ranges  0x00000000       0x88 Drivers\STM32F4xx_HAL_Driver\Src\stm32f4xx_hal_flash_ramfunc.o
 .debug_line    0x00000000      0x2c1 Drivers\STM32F4xx_HAL_Driver\Src\stm32f4xx_hal_flash_ramfunc.o
 .debug_str     0x00000000      0x841 Drivers\STM32F4xx_HAL_Driver\Src\stm32f4xx_hal_flash_ramfunc.o
 .comment       0x00000000       0x7d Drivers\STM32F4xx_HAL_Driver\Src\stm32f4xx_hal_flash_ramfunc.o
 .debug_frame   0x00000000       0x70 Drivers\STM32F4xx_HAL_Driver\Src\stm32f4xx_hal_flash_ramfunc.o
 .ARM.attributes
                0x00000000       0x39 Drivers\STM32F4xx_HAL_Driver\Src\stm32f4xx_hal_flash_ramfunc.o
 .text          0x00000000        0x0 Drivers\STM32F4xx_HAL_Driver\Src\stm32f4xx_hal_gpio.o
 .data          0x00000000        0x0 Drivers\STM32F4xx_HAL_Driver\Src\stm32f4xx_hal_gpio.o
 .bss           0x00000000        0x0 Drivers\STM32F4xx_HAL_Driver\Src\stm32f4xx_hal_gpio.o
 .text.HAL_GPIO_DeInit
                0x00000000       0xec Drivers\STM32F4xx_HAL_Driver\Src\stm32f4xx_hal_gpio.o
 .text.HAL_GPIO_ReadPin
                0x00000000        0xc Drivers\STM32F4xx_HAL_Driver\Src\stm32f4xx_hal_gpio.o
 .text.HAL_GPIO_LockPin
                0x00000000       0x2a Drivers\STM32F4xx_HAL_Driver\Src\stm32f4xx_hal_gpio.o
 .text.HAL_GPIO_EXTI_Callback
                0x00000000        0x2 Drivers\STM32F4xx_HAL_Driver\Src\stm32f4xx_hal_gpio.o
 .text.HAL_GPIO_EXTI_IRQHandler
                0x00000000       0x18 Drivers\STM32F4xx_HAL_Driver\Src\stm32f4xx_hal_gpio.o
 .text          0x00000000        0x0 Drivers\STM32F4xx_HAL_Driver\Src\stm32f4xx_hal_pcd.o
 .data          0x00000000        0x0 Drivers\STM32F4xx_HAL_Driver\Src\stm32f4xx_hal_pcd.o
 .bss           0x00000000        0x0 Drivers\STM32F4xx_HAL_Driver\Src\stm32f4xx_hal_pcd.o
 .text.HAL_PCD_MspInit
                0x00000000        0x2 Drivers\STM32F4xx_HAL_Driver\Src\stm32f4xx_hal_pcd.o
 .text.HAL_PCD_MspDeInit
                0x00000000        0x2 Drivers\STM32F4xx_HAL_Driver\Src\stm32f4xx_hal_pcd.o
 .text.HAL_PCD_Stop
                0x00000000       0x30 Drivers\STM32F4xx_HAL_Driver\Src\stm32f4xx_hal_pcd.o
 .text.HAL_PCD_DeInit
                0x00000000       0x22 Drivers\STM32F4xx_HAL_Driver\Src\stm32f4xx_hal_pcd.o
 .text.HAL_PCD_DataOutStageCallback
                0x00000000        0x2 Drivers\STM32F4xx_HAL_Driver\Src\stm32f4xx_hal_pcd.o
 .text.HAL_PCD_DataInStageCallback
                0x00000000        0x2 Drivers\STM32F4xx_HAL_Driver\Src\stm32f4xx_hal_pcd.o
 .text.HAL_PCD_SetupStageCallback
                0x00000000        0x2 Drivers\STM32F4xx_HAL_Driver\Src\stm32f4xx_hal_pcd.o
 .text.HAL_PCD_SOFCallback
                0x00000000        0x2 Drivers\STM32F4xx_HAL_Driver\Src\stm32f4xx_hal_pcd.o
 .text.HAL_PCD_ResetCallback
                0x00000000        0x2 Drivers\STM32F4xx_HAL_Driver\Src\stm32f4xx_hal_pcd.o
 .text.HAL_PCD_SuspendCallback
                0x00000000        0x2 Drivers\STM32F4xx_HAL_Driver\Src\stm32f4xx_hal_pcd.o
 .text.HAL_PCD_ResumeCallback
                0x00000000        0x2 Drivers\STM32F4xx_HAL_Driver\Src\stm32f4xx_hal_pcd.o
 .text.HAL_PCD_ISOOUTIncompleteCallback
                0x00000000        0x2 Drivers\STM32F4xx_HAL_Driver\Src\stm32f4xx_hal_pcd.o
 .text.HAL_PCD_ISOINIncompleteCallback
                0x00000000        0x2 Drivers\STM32F4xx_HAL_Driver\Src\stm32f4xx_hal_pcd.o
 .text.HAL_PCD_ConnectCallback
                0x00000000        0x2 Drivers\STM32F4xx_HAL_Driver\Src\stm32f4xx_hal_pcd.o
 .text.HAL_PCD_DisconnectCallback
                0x00000000        0x2 Drivers\STM32F4xx_HAL_Driver\Src\stm32f4xx_hal_pcd.o
 .text.HAL_PCD_DevConnect
                0x00000000       0x24 Drivers\STM32F4xx_HAL_Driver\Src\stm32f4xx_hal_pcd.o
 .text.HAL_PCD_DevDisconnect
                0x00000000       0x24 Drivers\STM32F4xx_HAL_Driver\Src\stm32f4xx_hal_pcd.o
 .text.HAL_PCD_EP_Flush
                0x00000000       0x34 Drivers\STM32F4xx_HAL_Driver\Src\stm32f4xx_hal_pcd.o
 .text.HAL_PCD_ActivateRemoteWakeup
                0x00000000       0x1a Drivers\STM32F4xx_HAL_Driver\Src\stm32f4xx_hal_pcd.o
 .text.HAL_PCD_DeActivateRemoteWakeup
                0x00000000       0x12 Drivers\STM32F4xx_HAL_Driver\Src\stm32f4xx_hal_pcd.o
 .text.HAL_PCD_GetState
                0x00000000        0x6 Drivers\STM32F4xx_HAL_Driver\Src\stm32f4xx_hal_pcd.o
 .text          0x00000000        0x0 Drivers\STM32F4xx_HAL_Driver\Src\stm32f4xx_hal_pcd_ex.o
 .data          0x00000000        0x0 Drivers\STM32F4xx_HAL_Driver\Src\stm32f4xx_hal_pcd_ex.o
 .bss           0x00000000        0x0 Drivers\STM32F4xx_HAL_Driver\Src\stm32f4xx_hal_pcd_ex.o
 .text          0x00000000        0x0 Drivers\STM32F4xx_HAL_Driver\Src\stm32f4xx_hal_pwr.o
 .data          0x00000000        0x0 Drivers\STM32F4xx_HAL_Driver\Src\stm32f4xx_hal_pwr.o
 .bss           0x00000000        0x0 Drivers\STM32F4xx_HAL_Driver\Src\stm32f4xx_hal_pwr.o
 .text.HAL_PWR_DeInit
                0x00000000       0x18 Drivers\STM32F4xx_HAL_Driver\Src\stm32f4xx_hal_pwr.o
 .text.HAL_PWR_EnableBkUpAccess
                0x00000000        0xc Drivers\STM32F4xx_HAL_Driver\Src\stm32f4xx_hal_pwr.o
 .text.HAL_PWR_DisableBkUpAccess
                0x00000000        0xc Drivers\STM32F4xx_HAL_Driver\Src\stm32f4xx_hal_pwr.o
 .text.HAL_PWR_ConfigPVD
                0x00000000       0x70 Drivers\STM32F4xx_HAL_Driver\Src\stm32f4xx_hal_pwr.o
 .text.HAL_PWR_EnablePVD
                0x00000000        0xc Drivers\STM32F4xx_HAL_Driver\Src\stm32f4xx_hal_pwr.o
 .text.HAL_PWR_DisablePVD
                0x00000000        0xc Drivers\STM32F4xx_HAL_Driver\Src\stm32f4xx_hal_pwr.o
 .text.HAL_PWR_EnableWakeUpPin
                0x00000000       0x10 Drivers\STM32F4xx_HAL_Driver\Src\stm32f4xx_hal_pwr.o
 .text.HAL_PWR_DisableWakeUpPin
                0x00000000       0x10 Drivers\STM32F4xx_HAL_Driver\Src\stm32f4xx_hal_pwr.o
 .text.HAL_PWR_EnterSLEEPMode
                0x00000000       0x20 Drivers\STM32F4xx_HAL_Driver\Src\stm32f4xx_hal_pwr.o
 .text.HAL_PWR_EnterSTOPMode
                0x00000000       0x38 Drivers\STM32F4xx_HAL_Driver\Src\stm32f4xx_hal_pwr.o
 .text.HAL_PWR_EnterSTANDBYMode
                0x00000000       0x20 Drivers\STM32F4xx_HAL_Driver\Src\stm32f4xx_hal_pwr.o
 .text.HAL_PWR_PVDCallback
                0x00000000        0x2 Drivers\STM32F4xx_HAL_Driver\Src\stm32f4xx_hal_pwr.o
 .text.HAL_PWR_PVD_IRQHandler
                0x00000000       0x1c Drivers\STM32F4xx_HAL_Driver\Src\stm32f4xx_hal_pwr.o
 .text.HAL_PWR_EnableSleepOnExit
                0x00000000       0x10 Drivers\STM32F4xx_HAL_Driver\Src\stm32f4xx_hal_pwr.o
 .text.HAL_PWR_DisableSleepOnExit
                0x00000000       0x10 Drivers\STM32F4xx_HAL_Driver\Src\stm32f4xx_hal_pwr.o
 .text.HAL_PWR_EnableSEVOnPend
                0x00000000       0x10 Drivers\STM32F4xx_HAL_Driver\Src\stm32f4xx_hal_pwr.o
 .text.HAL_PWR_DisableSEVOnPend
                0x00000000       0x10 Drivers\STM32F4xx_HAL_Driver\Src\stm32f4xx_hal_pwr.o
 .debug_info    0x00000000     0x1011 Drivers\STM32F4xx_HAL_Driver\Src\stm32f4xx_hal_pwr.o
 .debug_abbrev  0x00000000      0x21f Drivers\STM32F4xx_HAL_Driver\Src\stm32f4xx_hal_pwr.o
 .debug_loc     0x00000000       0x84 Drivers\STM32F4xx_HAL_Driver\Src\stm32f4xx_hal_pwr.o
 .debug_aranges
                0x00000000       0xa0 Drivers\STM32F4xx_HAL_Driver\Src\stm32f4xx_hal_pwr.o
 .debug_ranges  0x00000000       0x90 Drivers\STM32F4xx_HAL_Driver\Src\stm32f4xx_hal_pwr.o
 .debug_line    0x00000000      0x406 Drivers\STM32F4xx_HAL_Driver\Src\stm32f4xx_hal_pwr.o
 .debug_str     0x00000000      0x9db Drivers\STM32F4xx_HAL_Driver\Src\stm32f4xx_hal_pwr.o
 .comment       0x00000000       0x7d Drivers\STM32F4xx_HAL_Driver\Src\stm32f4xx_hal_pwr.o
 .debug_frame   0x00000000      0x128 Drivers\STM32F4xx_HAL_Driver\Src\stm32f4xx_hal_pwr.o
 .ARM.attributes
                0x00000000       0x39 Drivers\STM32F4xx_HAL_Driver\Src\stm32f4xx_hal_pwr.o
 .text          0x00000000        0x0 Drivers\STM32F4xx_HAL_Driver\Src\stm32f4xx_hal_pwr_ex.o
 .data          0x00000000        0x0 Drivers\STM32F4xx_HAL_Driver\Src\stm32f4xx_hal_pwr_ex.o
 .bss           0x00000000        0x0 Drivers\STM32F4xx_HAL_Driver\Src\stm32f4xx_hal_pwr_ex.o
 .text.HAL_PWREx_EnableBkUpReg
                0x00000000       0x34 Drivers\STM32F4xx_HAL_Driver\Src\stm32f4xx_hal_pwr_ex.o
 .text.HAL_PWREx_DisableBkUpReg
                0x00000000       0x34 Drivers\STM32F4xx_HAL_Driver\Src\stm32f4xx_hal_pwr_ex.o
 .text.HAL_PWREx_EnableFlashPowerDown
                0x00000000        0xc Drivers\STM32F4xx_HAL_Driver\Src\stm32f4xx_hal_pwr_ex.o
 .text.HAL_PWREx_DisableFlashPowerDown
                0x00000000        0xc Drivers\STM32F4xx_HAL_Driver\Src\stm32f4xx_hal_pwr_ex.o
 .text.HAL_PWREx_GetVoltageRange
                0x00000000       0x10 Drivers\STM32F4xx_HAL_Driver\Src\stm32f4xx_hal_pwr_ex.o
 .text.HAL_PWREx_ControlVoltageScaling
                0x00000000       0xb0 Drivers\STM32F4xx_HAL_Driver\Src\stm32f4xx_hal_pwr_ex.o
 .text.HAL_PWREx_EnableMainRegulatorLowVoltage
                0x00000000        0xc Drivers\STM32F4xx_HAL_Driver\Src\stm32f4xx_hal_pwr_ex.o
 .text.HAL_PWREx_DisableMainRegulatorLowVoltage
                0x00000000        0xc Drivers\STM32F4xx_HAL_Driver\Src\stm32f4xx_hal_pwr_ex.o
 .text.HAL_PWREx_EnableLowRegulatorLowVoltage
                0x00000000        0xc Drivers\STM32F4xx_HAL_Driver\Src\stm32f4xx_hal_pwr_ex.o
 .text.HAL_PWREx_DisableLowRegulatorLowVoltage
                0x00000000        0xc Drivers\STM32F4xx_HAL_Driver\Src\stm32f4xx_hal_pwr_ex.o
 .debug_info    0x00000000      0xd41 Drivers\STM32F4xx_HAL_Driver\Src\stm32f4xx_hal_pwr_ex.o
 .debug_abbrev  0x00000000      0x27c Drivers\STM32F4xx_HAL_Driver\Src\stm32f4xx_hal_pwr_ex.o
 .debug_loc     0x00000000       0xbe Drivers\STM32F4xx_HAL_Driver\Src\stm32f4xx_hal_pwr_ex.o
 .debug_aranges
                0x00000000       0x68 Drivers\STM32F4xx_HAL_Driver\Src\stm32f4xx_hal_pwr_ex.o
 .debug_ranges  0x00000000       0x70 Drivers\STM32F4xx_HAL_Driver\Src\stm32f4xx_hal_pwr_ex.o
 .debug_line    0x00000000      0x398 Drivers\STM32F4xx_HAL_Driver\Src\stm32f4xx_hal_pwr_ex.o
 .debug_str     0x00000000      0x936 Drivers\STM32F4xx_HAL_Driver\Src\stm32f4xx_hal_pwr_ex.o
 .comment       0x00000000       0x7d Drivers\STM32F4xx_HAL_Driver\Src\stm32f4xx_hal_pwr_ex.o
 .debug_frame   0x00000000       0xdc Drivers\STM32F4xx_HAL_Driver\Src\stm32f4xx_hal_pwr_ex.o
 .ARM.attributes
                0x00000000       0x39 Drivers\STM32F4xx_HAL_Driver\Src\stm32f4xx_hal_pwr_ex.o
 .text          0x00000000        0x0 Drivers\STM32F4xx_HAL_Driver\Src\stm32f4xx_hal_rcc.o
 .data          0x00000000        0x0 Drivers\STM32F4xx_HAL_Driver\Src\stm32f4xx_hal_rcc.o
 .bss           0x00000000        0x0 Drivers\STM32F4xx_HAL_Driver\Src\stm32f4xx_hal_rcc.o
 .text.HAL_RCC_DeInit
                0x00000000        0x4 Drivers\STM32F4xx_HAL_Driver\Src\stm32f4xx_hal_rcc.o
 .text.HAL_RCC_MCOConfig
                0x00000000       0x98 Drivers\STM32F4xx_HAL_Driver\Src\stm32f4xx_hal_rcc.o
 .text.HAL_RCC_EnableCSS
                0x00000000        0xc Drivers\STM32F4xx_HAL_Driver\Src\stm32f4xx_hal_rcc.o
 .text.HAL_RCC_DisableCSS
                0x00000000        0xc Drivers\STM32F4xx_HAL_Driver\Src\stm32f4xx_hal_rcc.o
 .text.HAL_RCC_GetPCLK1Freq
                0x00000000       0x20 Drivers\STM32F4xx_HAL_Driver\Src\stm32f4xx_hal_rcc.o
 .text.HAL_RCC_GetOscConfig
                0x00000000       0x9c Drivers\STM32F4xx_HAL_Driver\Src\stm32f4xx_hal_rcc.o
 .text.HAL_RCC_CSSCallback
                0x00000000        0x2 Drivers\STM32F4xx_HAL_Driver\Src\stm32f4xx_hal_rcc.o
 .text.HAL_RCC_NMI_IRQHandler
                0x00000000       0x20 Drivers\STM32F4xx_HAL_Driver\Src\stm32f4xx_hal_rcc.o
 .text          0x00000000        0x0 Drivers\STM32F4xx_HAL_Driver\Src\stm32f4xx_hal_rcc_ex.o
 .data          0x00000000        0x0 Drivers\STM32F4xx_HAL_Driver\Src\stm32f4xx_hal_rcc_ex.o
 .bss           0x00000000        0x0 Drivers\STM32F4xx_HAL_Driver\Src\stm32f4xx_hal_rcc_ex.o
 .text.HAL_RCCEx_PeriphCLKConfig
                0x00000000      0x140 Drivers\STM32F4xx_HAL_Driver\Src\stm32f4xx_hal_rcc_ex.o
 .text.HAL_RCCEx_GetPeriphCLKConfig
                0x00000000       0x48 Drivers\STM32F4xx_HAL_Driver\Src\stm32f4xx_hal_rcc_ex.o
 .text.HAL_RCCEx_GetPeriphCLKFreq
                0x00000000       0x5c Drivers\STM32F4xx_HAL_Driver\Src\stm32f4xx_hal_rcc_ex.o
 .text.HAL_RCCEx_SelectLSEMode
                0x00000000       0x18 Drivers\STM32F4xx_HAL_Driver\Src\stm32f4xx_hal_rcc_ex.o
 .text.HAL_RCCEx_EnablePLLI2S
                0x00000000       0x64 Drivers\STM32F4xx_HAL_Driver\Src\stm32f4xx_hal_rcc_ex.o
 .text.HAL_RCCEx_DisablePLLI2S
                0x00000000       0x30 Drivers\STM32F4xx_HAL_Driver\Src\stm32f4xx_hal_rcc_ex.o
 .text.HAL_RCC_DeInit
                0x00000000      0x118 Drivers\STM32F4xx_HAL_Driver\Src\stm32f4xx_hal_rcc_ex.o
 .debug_info    0x00000000      0xede Drivers\STM32F4xx_HAL_Driver\Src\stm32f4xx_hal_rcc_ex.o
 .debug_abbrev  0x00000000      0x225 Drivers\STM32F4xx_HAL_Driver\Src\stm32f4xx_hal_rcc_ex.o
 .debug_loc     0x00000000      0x2f5 Drivers\STM32F4xx_HAL_Driver\Src\stm32f4xx_hal_rcc_ex.o
 .debug_aranges
                0x00000000       0x50 Drivers\STM32F4xx_HAL_Driver\Src\stm32f4xx_hal_rcc_ex.o
 .debug_ranges  0x00000000       0x58 Drivers\STM32F4xx_HAL_Driver\Src\stm32f4xx_hal_rcc_ex.o
 .debug_line    0x00000000      0x449 Drivers\STM32F4xx_HAL_Driver\Src\stm32f4xx_hal_rcc_ex.o
 .debug_str     0x00000000      0x974 Drivers\STM32F4xx_HAL_Driver\Src\stm32f4xx_hal_rcc_ex.o
 .comment       0x00000000       0x7d Drivers\STM32F4xx_HAL_Driver\Src\stm32f4xx_hal_rcc_ex.o
 .debug_frame   0x00000000       0xbc Drivers\STM32F4xx_HAL_Driver\Src\stm32f4xx_hal_rcc_ex.o
 .ARM.attributes
                0x00000000       0x39 Drivers\STM32F4xx_HAL_Driver\Src\stm32f4xx_hal_rcc_ex.o
 .text          0x00000000        0x0 Drivers\STM32F4xx_HAL_Driver\Src\stm32f4xx_hal_tim.o
 .data          0x00000000        0x0 Drivers\STM32F4xx_HAL_Driver\Src\stm32f4xx_hal_tim.o
 .bss           0x00000000        0x0 Drivers\STM32F4xx_HAL_Driver\Src\stm32f4xx_hal_tim.o
 .text.TIM_OC1_SetConfig
                0x00000000       0x50 Drivers\STM32F4xx_HAL_Driver\Src\stm32f4xx_hal_tim.o
 .text.TIM_OC3_SetConfig
                0x00000000       0x54 Drivers\STM32F4xx_HAL_Driver\Src\stm32f4xx_hal_tim.o
 .text.TIM_OC4_SetConfig
                0x00000000       0x44 Drivers\STM32F4xx_HAL_Driver\Src\stm32f4xx_hal_tim.o
 .text.TIM_SlaveTimer_SetConfig
                0x00000000       0xaa Drivers\STM32F4xx_HAL_Driver\Src\stm32f4xx_hal_tim.o
 .text.HAL_TIM_Base_MspDeInit
                0x00000000        0x2 Drivers\STM32F4xx_HAL_Driver\Src\stm32f4xx_hal_tim.o
 .text.HAL_TIM_Base_DeInit
                0x00000000       0x3a Drivers\STM32F4xx_HAL_Driver\Src\stm32f4xx_hal_tim.o
 .text.HAL_TIM_Base_Start
                0x00000000       0x1a Drivers\STM32F4xx_HAL_Driver\Src\stm32f4xx_hal_tim.o
 .text.HAL_TIM_Base_Stop
                0x00000000       0x2e Drivers\STM32F4xx_HAL_Driver\Src\stm32f4xx_hal_tim.o
 .text.HAL_TIM_Base_Stop_IT
                0x00000000       0x2a Drivers\STM32F4xx_HAL_Driver\Src\stm32f4xx_hal_tim.o
 .text.HAL_TIM_Base_Start_DMA
                0x00000000       0x54 Drivers\STM32F4xx_HAL_Driver\Src\stm32f4xx_hal_tim.o
 .text.HAL_TIM_Base_Stop_DMA
                0x00000000       0x30 Drivers\STM32F4xx_HAL_Driver\Src\stm32f4xx_hal_tim.o
 .text.HAL_TIM_OC_MspInit
                0x00000000        0x2 Drivers\STM32F4xx_HAL_Driver\Src\stm32f4xx_hal_tim.o
 .text.HAL_TIM_OC_MspDeInit
                0x00000000        0x2 Drivers\STM32F4xx_HAL_Driver\Src\stm32f4xx_hal_tim.o
 .text.HAL_TIM_OC_DeInit
                0x00000000       0x3a Drivers\STM32F4xx_HAL_Driver\Src\stm32f4xx_hal_tim.o
 .text.HAL_TIM_PWM_MspInit
                0x00000000        0x2 Drivers\STM32F4xx_HAL_Driver\Src\stm32f4xx_hal_tim.o
 .text.HAL_TIM_PWM_MspDeInit
                0x00000000        0x2 Drivers\STM32F4xx_HAL_Driver\Src\stm32f4xx_hal_tim.o
 .text.HAL_TIM_PWM_DeInit
                0x00000000       0x3a Drivers\STM32F4xx_HAL_Driver\Src\stm32f4xx_hal_tim.o
 .text.HAL_TIM_IC_MspInit
                0x00000000        0x2 Drivers\STM32F4xx_HAL_Driver\Src\stm32f4xx_hal_tim.o
 .text.HAL_TIM_IC_MspDeInit
                0x00000000        0x2 Drivers\STM32F4xx_HAL_Driver\Src\stm32f4xx_hal_tim.o
 .text.HAL_TIM_IC_DeInit
                0x00000000       0x3a Drivers\STM32F4xx_HAL_Driver\Src\stm32f4xx_hal_tim.o
 .text.HAL_TIM_OnePulse_MspInit
                0x00000000        0x2 Drivers\STM32F4xx_HAL_Driver\Src\stm32f4xx_hal_tim.o
 .text.HAL_TIM_OnePulse_MspDeInit
                0x00000000        0x2 Drivers\STM32F4xx_HAL_Driver\Src\stm32f4xx_hal_tim.o
 .text.HAL_TIM_OnePulse_DeInit
                0x00000000       0x3a Drivers\STM32F4xx_HAL_Driver\Src\stm32f4xx_hal_tim.o
 .text.HAL_TIM_OnePulse_Start
                0x00000000       0x38 Drivers\STM32F4xx_HAL_Driver\Src\stm32f4xx_hal_tim.o
 .text.HAL_TIM_OnePulse_Stop
                0x00000000       0x60 Drivers\STM32F4xx_HAL_Driver\Src\stm32f4xx_hal_tim.o
 .text.HAL_TIM_OnePulse_Start_IT
                0x00000000       0x48 Drivers\STM32F4xx_HAL_Driver\Src\stm32f4xx_hal_tim.o
 .text.HAL_TIM_OnePulse_Stop_IT
                0x00000000       0x70 Drivers\STM32F4xx_HAL_Driver\Src\stm32f4xx_hal_tim.o
 .text.HAL_TIM_Encoder_MspInit
                0x00000000        0x2 Drivers\STM32F4xx_HAL_Driver\Src\stm32f4xx_hal_tim.o
 .text.HAL_TIM_Encoder_MspDeInit
                0x00000000        0x2 Drivers\STM32F4xx_HAL_Driver\Src\stm32f4xx_hal_tim.o
 .text.HAL_TIM_Encoder_DeInit
                0x00000000       0x3a Drivers\STM32F4xx_HAL_Driver\Src\stm32f4xx_hal_tim.o
 .text.HAL_TIM_Encoder_Start
                0x00000000       0x44 Drivers\STM32F4xx_HAL_Driver\Src\stm32f4xx_hal_tim.o
 .text.HAL_TIM_Encoder_Stop
                0x00000000       0x48 Drivers\STM32F4xx_HAL_Driver\Src\stm32f4xx_hal_tim.o
 .text.HAL_TIM_Encoder_Start_IT
                0x00000000       0x6e Drivers\STM32F4xx_HAL_Driver\Src\stm32f4xx_hal_tim.o
 .text.HAL_TIM_Encoder_Stop_IT
                0x00000000       0x74 Drivers\STM32F4xx_HAL_Driver\Src\stm32f4xx_hal_tim.o
 .text.HAL_TIM_Encoder_Start_DMA
                0x00000000      0x124 Drivers\STM32F4xx_HAL_Driver\Src\stm32f4xx_hal_tim.o
 .text.HAL_TIM_Encoder_Stop_DMA
                0x00000000       0x74 Drivers\STM32F4xx_HAL_Driver\Src\stm32f4xx_hal_tim.o
 .text.HAL_TIM_DMABurst_WriteStart
                0x00000000       0xb4 Drivers\STM32F4xx_HAL_Driver\Src\stm32f4xx_hal_tim.o
 .text.HAL_TIM_DMABurst_ReadStart
                0x00000000       0xb4 Drivers\STM32F4xx_HAL_Driver\Src\stm32f4xx_hal_tim.o
 .text.HAL_TIM_DMABurst_ReadStop
                0x00000000       0x5e Drivers\STM32F4xx_HAL_Driver\Src\stm32f4xx_hal_tim.o
 .text.HAL_TIM_DMABurst_WriteStop
                0x00000000        0x4 Drivers\STM32F4xx_HAL_Driver\Src\stm32f4xx_hal_tim.o
 .text.HAL_TIM_GenerateEvent
                0x00000000       0x24 Drivers\STM32F4xx_HAL_Driver\Src\stm32f4xx_hal_tim.o
 .text.HAL_TIM_ConfigOCrefClear
                0x00000000       0xb6 Drivers\STM32F4xx_HAL_Driver\Src\stm32f4xx_hal_tim.o
 .text.HAL_TIM_ConfigClockSource
                0x00000000      0x172 Drivers\STM32F4xx_HAL_Driver\Src\stm32f4xx_hal_tim.o
 .text.HAL_TIM_ConfigTI1Input
                0x00000000       0x10 Drivers\STM32F4xx_HAL_Driver\Src\stm32f4xx_hal_tim.o
 .text.HAL_TIM_SlaveConfigSynchronization
                0x00000000       0x40 Drivers\STM32F4xx_HAL_Driver\Src\stm32f4xx_hal_tim.o
 .text.HAL_TIM_SlaveConfigSynchronization_IT
                0x00000000       0x40 Drivers\STM32F4xx_HAL_Driver\Src\stm32f4xx_hal_tim.o
 .text.HAL_TIM_ReadCapturedValue
                0x00000000       0x46 Drivers\STM32F4xx_HAL_Driver\Src\stm32f4xx_hal_tim.o
 .text.HAL_TIM_PeriodElapsedCallback
                0x00000000        0x2 Drivers\STM32F4xx_HAL_Driver\Src\stm32f4xx_hal_tim.o
 .text.TIM_DMAPeriodElapsedCplt
                0x00000000       0x10 Drivers\STM32F4xx_HAL_Driver\Src\stm32f4xx_hal_tim.o
 .text.TIM_DMACaptureCplt
                0x00000000       0x3c Drivers\STM32F4xx_HAL_Driver\Src\stm32f4xx_hal_tim.o
 .text.TIM_DMADelayPulseCplt
                0x00000000       0x3c Drivers\STM32F4xx_HAL_Driver\Src\stm32f4xx_hal_tim.o
 .text.TIM_DMATriggerCplt
                0x00000000       0x10 Drivers\STM32F4xx_HAL_Driver\Src\stm32f4xx_hal_tim.o
 .text.HAL_TIM_ErrorCallback
                0x00000000        0x2 Drivers\STM32F4xx_HAL_Driver\Src\stm32f4xx_hal_tim.o
 .text.TIM_DMAError
                0x00000000       0x10 Drivers\STM32F4xx_HAL_Driver\Src\stm32f4xx_hal_tim.o
 .text.HAL_TIM_Base_GetState
                0x00000000        0x6 Drivers\STM32F4xx_HAL_Driver\Src\stm32f4xx_hal_tim.o
 .text.HAL_TIM_OC_GetState
                0x00000000        0x6 Drivers\STM32F4xx_HAL_Driver\Src\stm32f4xx_hal_tim.o
 .text.HAL_TIM_PWM_GetState
                0x00000000        0x6 Drivers\STM32F4xx_HAL_Driver\Src\stm32f4xx_hal_tim.o
 .text.HAL_TIM_IC_GetState
                0x00000000        0x6 Drivers\STM32F4xx_HAL_Driver\Src\stm32f4xx_hal_tim.o
 .text.HAL_TIM_OnePulse_GetState
                0x00000000        0x6 Drivers\STM32F4xx_HAL_Driver\Src\stm32f4xx_hal_tim.o
 .text.HAL_TIM_Encoder_GetState
                0x00000000        0x6 Drivers\STM32F4xx_HAL_Driver\Src\stm32f4xx_hal_tim.o
 .text.HAL_TIM_OC_Init
                0x00000000       0x34 Drivers\STM32F4xx_HAL_Driver\Src\stm32f4xx_hal_tim.o
 .text.HAL_TIM_PWM_Init
                0x00000000       0x34 Drivers\STM32F4xx_HAL_Driver\Src\stm32f4xx_hal_tim.o
 .text.HAL_TIM_IC_Init
                0x00000000       0x34 Drivers\STM32F4xx_HAL_Driver\Src\stm32f4xx_hal_tim.o
 .text.HAL_TIM_OnePulse_Init
                0x00000000       0x46 Drivers\STM32F4xx_HAL_Driver\Src\stm32f4xx_hal_tim.o
 .text.HAL_TIM_Encoder_Init
                0x00000000       0x92 Drivers\STM32F4xx_HAL_Driver\Src\stm32f4xx_hal_tim.o
 .text.TIM_TI1_SetConfig
                0x00000000       0x64 Drivers\STM32F4xx_HAL_Driver\Src\stm32f4xx_hal_tim.o
 .text.HAL_TIM_IC_ConfigChannel
                0x00000000      0x110 Drivers\STM32F4xx_HAL_Driver\Src\stm32f4xx_hal_tim.o
 .text.TIM_OC2_SetConfig
                0x00000000       0x58 Drivers\STM32F4xx_HAL_Driver\Src\stm32f4xx_hal_tim.o
 .text.HAL_TIM_OC_ConfigChannel
                0x00000000       0x5c Drivers\STM32F4xx_HAL_Driver\Src\stm32f4xx_hal_tim.o
 .text.HAL_TIM_PWM_ConfigChannel
                0x00000000       0xc4 Drivers\STM32F4xx_HAL_Driver\Src\stm32f4xx_hal_tim.o
 .text.HAL_TIM_OnePulse_ConfigChannel
                0x00000000       0xf6 Drivers\STM32F4xx_HAL_Driver\Src\stm32f4xx_hal_tim.o
 .text.TIM_CCxChannelCmd
                0x00000000       0x18 Drivers\STM32F4xx_HAL_Driver\Src\stm32f4xx_hal_tim.o
 .text.HAL_TIM_OC_Stop
                0x00000000       0x54 Drivers\STM32F4xx_HAL_Driver\Src\stm32f4xx_hal_tim.o
 .text.HAL_TIM_PWM_Start
                0x00000000       0x2c Drivers\STM32F4xx_HAL_Driver\Src\stm32f4xx_hal_tim.o
 .text.HAL_TIM_OC_Start
                0x00000000        0x4 Drivers\STM32F4xx_HAL_Driver\Src\stm32f4xx_hal_tim.o
 .text.HAL_TIM_PWM_Stop
                0x00000000       0x5c Drivers\STM32F4xx_HAL_Driver\Src\stm32f4xx_hal_tim.o
 .text.HAL_TIM_PWM_Start_IT
                0x00000000       0x6c Drivers\STM32F4xx_HAL_Driver\Src\stm32f4xx_hal_tim.o
 .text.HAL_TIM_OC_Start_IT
                0x00000000        0x4 Drivers\STM32F4xx_HAL_Driver\Src\stm32f4xx_hal_tim.o
 .text.HAL_TIM_PWM_Stop_IT
                0x00000000       0x94 Drivers\STM32F4xx_HAL_Driver\Src\stm32f4xx_hal_tim.o
 .text.HAL_TIM_OC_Stop_IT
                0x00000000        0x4 Drivers\STM32F4xx_HAL_Driver\Src\stm32f4xx_hal_tim.o
 .text.HAL_TIM_PWM_Start_DMA
                0x00000000       0xe0 Drivers\STM32F4xx_HAL_Driver\Src\stm32f4xx_hal_tim.o
 .text.HAL_TIM_OC_Start_DMA
                0x00000000        0x4 Drivers\STM32F4xx_HAL_Driver\Src\stm32f4xx_hal_tim.o
 .text.HAL_TIM_PWM_Stop_DMA
                0x00000000       0x98 Drivers\STM32F4xx_HAL_Driver\Src\stm32f4xx_hal_tim.o
 .text.HAL_TIM_OC_Stop_DMA
                0x00000000        0x4 Drivers\STM32F4xx_HAL_Driver\Src\stm32f4xx_hal_tim.o
 .text.HAL_TIM_IC_Start
                0x00000000       0x1a Drivers\STM32F4xx_HAL_Driver\Src\stm32f4xx_hal_tim.o
 .text.HAL_TIM_IC_Stop
                0x00000000       0x2e Drivers\STM32F4xx_HAL_Driver\Src\stm32f4xx_hal_tim.o
 .text.HAL_TIM_IC_Start_IT
                0x00000000       0x58 Drivers\STM32F4xx_HAL_Driver\Src\stm32f4xx_hal_tim.o
 .text.HAL_TIM_IC_Stop_IT
                0x00000000       0x6c Drivers\STM32F4xx_HAL_Driver\Src\stm32f4xx_hal_tim.o
 .text.HAL_TIM_IC_Start_DMA
                0x00000000       0xcc Drivers\STM32F4xx_HAL_Driver\Src\stm32f4xx_hal_tim.o
 .text.HAL_TIM_IC_Stop_DMA
                0x00000000       0x72 Drivers\STM32F4xx_HAL_Driver\Src\stm32f4xx_hal_tim.o
 .text          0x00000000        0x0 Drivers\STM32F4xx_HAL_Driver\Src\stm32f4xx_hal_tim_ex.o
 .data          0x00000000        0x0 Drivers\STM32F4xx_HAL_Driver\Src\stm32f4xx_hal_tim_ex.o
 .bss           0x00000000        0x0 Drivers\STM32F4xx_HAL_Driver\Src\stm32f4xx_hal_tim_ex.o
 .text.TIM_CCxNChannelCmd
                0x00000000       0x18 Drivers\STM32F4xx_HAL_Driver\Src\stm32f4xx_hal_tim_ex.o
 .text.HAL_TIMEx_HallSensor_MspInit
                0x00000000        0x2 Drivers\STM32F4xx_HAL_Driver\Src\stm32f4xx_hal_tim_ex.o
 .text.HAL_TIMEx_HallSensor_Init
                0x00000000       0xa0 Drivers\STM32F4xx_HAL_Driver\Src\stm32f4xx_hal_tim_ex.o
 .text.HAL_TIMEx_HallSensor_MspDeInit
                0x00000000        0x2 Drivers\STM32F4xx_HAL_Driver\Src\stm32f4xx_hal_tim_ex.o
 .text.HAL_TIMEx_HallSensor_DeInit
                0x00000000       0x3a Drivers\STM32F4xx_HAL_Driver\Src\stm32f4xx_hal_tim_ex.o
 .text.HAL_TIMEx_HallSensor_Start
                0x00000000       0x1c Drivers\STM32F4xx_HAL_Driver\Src\stm32f4xx_hal_tim_ex.o
 .text.HAL_TIMEx_HallSensor_Stop
                0x00000000       0x30 Drivers\STM32F4xx_HAL_Driver\Src\stm32f4xx_hal_tim_ex.o
 .text.HAL_TIMEx_HallSensor_Start_IT
                0x00000000       0x24 Drivers\STM32F4xx_HAL_Driver\Src\stm32f4xx_hal_tim_ex.o
 .text.HAL_TIMEx_HallSensor_Stop_IT
                0x00000000       0x38 Drivers\STM32F4xx_HAL_Driver\Src\stm32f4xx_hal_tim_ex.o
 .text.HAL_TIMEx_HallSensor_Start_DMA
                0x00000000       0x64 Drivers\STM32F4xx_HAL_Driver\Src\stm32f4xx_hal_tim_ex.o
 .text.HAL_TIMEx_HallSensor_Stop_DMA
                0x00000000       0x38 Drivers\STM32F4xx_HAL_Driver\Src\stm32f4xx_hal_tim_ex.o
 .text.HAL_TIMEx_PWMN_Start
                0x00000000       0x22 Drivers\STM32F4xx_HAL_Driver\Src\stm32f4xx_hal_tim_ex.o
 .text.HAL_TIMEx_OCN_Start
                0x00000000        0x4 Drivers\STM32F4xx_HAL_Driver\Src\stm32f4xx_hal_tim_ex.o
 .text.HAL_TIMEx_PWMN_Start_IT
                0x00000000       0x60 Drivers\STM32F4xx_HAL_Driver\Src\stm32f4xx_hal_tim_ex.o
 .text.HAL_TIMEx_OCN_Start_IT
                0x00000000        0x4 Drivers\STM32F4xx_HAL_Driver\Src\stm32f4xx_hal_tim_ex.o
 .text.HAL_TIMEx_PWMN_Stop_IT
                0x00000000       0x9a Drivers\STM32F4xx_HAL_Driver\Src\stm32f4xx_hal_tim_ex.o
 .text.HAL_TIMEx_OCN_Stop_IT
                0x00000000        0x4 Drivers\STM32F4xx_HAL_Driver\Src\stm32f4xx_hal_tim_ex.o
 .text.HAL_TIMEx_PWMN_Start_DMA
                0x00000000       0xd4 Drivers\STM32F4xx_HAL_Driver\Src\stm32f4xx_hal_tim_ex.o
 .text.HAL_TIMEx_OCN_Start_DMA
                0x00000000        0x4 Drivers\STM32F4xx_HAL_Driver\Src\stm32f4xx_hal_tim_ex.o
 .text.HAL_TIMEx_PWMN_Stop_DMA
                0x00000000       0x8e Drivers\STM32F4xx_HAL_Driver\Src\stm32f4xx_hal_tim_ex.o
 .text.HAL_TIMEx_OCN_Stop_DMA
                0x00000000        0x4 Drivers\STM32F4xx_HAL_Driver\Src\stm32f4xx_hal_tim_ex.o
 .text.HAL_TIMEx_OnePulseN_Start
                0x00000000       0x1a Drivers\STM32F4xx_HAL_Driver\Src\stm32f4xx_hal_tim_ex.o
 .text.HAL_TIMEx_OnePulseN_Stop
                0x00000000       0x4a Drivers\STM32F4xx_HAL_Driver\Src\stm32f4xx_hal_tim_ex.o
 .text.HAL_TIMEx_PWMN_Stop
                0x00000000        0x4 Drivers\STM32F4xx_HAL_Driver\Src\stm32f4xx_hal_tim_ex.o
 .text.HAL_TIMEx_OCN_Stop
                0x00000000        0x4 Drivers\STM32F4xx_HAL_Driver\Src\stm32f4xx_hal_tim_ex.o
 .text.HAL_TIMEx_OnePulseN_Start_IT
                0x00000000       0x2a Drivers\STM32F4xx_HAL_Driver\Src\stm32f4xx_hal_tim_ex.o
 .text.HAL_TIMEx_OnePulseN_Stop_IT
                0x00000000       0x5a Drivers\STM32F4xx_HAL_Driver\Src\stm32f4xx_hal_tim_ex.o
 .text.HAL_TIMEx_ConfigCommutationEvent
                0x00000000       0x4a Drivers\STM32F4xx_HAL_Driver\Src\stm32f4xx_hal_tim_ex.o
 .text.HAL_TIMEx_ConfigCommutationEvent_IT
                0x00000000       0x52 Drivers\STM32F4xx_HAL_Driver\Src\stm32f4xx_hal_tim_ex.o
 .text.HAL_TIMEx_ConfigCommutationEvent_DMA
                0x00000000       0x64 Drivers\STM32F4xx_HAL_Driver\Src\stm32f4xx_hal_tim_ex.o
 .text.HAL_TIMEx_MasterConfigSynchronization
                0x00000000       0x44 Drivers\STM32F4xx_HAL_Driver\Src\stm32f4xx_hal_tim_ex.o
 .text.HAL_TIMEx_ConfigBreakDeadTime
                0x00000000       0x4c Drivers\STM32F4xx_HAL_Driver\Src\stm32f4xx_hal_tim_ex.o
 .text.HAL_TIMEx_RemapConfig
                0x00000000       0x20 Drivers\STM32F4xx_HAL_Driver\Src\stm32f4xx_hal_tim_ex.o
 .text.TIMEx_DMACommutationCplt
                0x00000000       0x10 Drivers\STM32F4xx_HAL_Driver\Src\stm32f4xx_hal_tim_ex.o
 .text.HAL_TIMEx_HallSensor_GetState
                0x00000000        0x6 Drivers\STM32F4xx_HAL_Driver\Src\stm32f4xx_hal_tim_ex.o
 .text          0x00000000        0x0 Drivers\STM32F4xx_HAL_Driver\Src\stm32f4xx_ll_usb.o
 .data          0x00000000        0x0 Drivers\STM32F4xx_HAL_Driver\Src\stm32f4xx_ll_usb.o
 .bss           0x00000000        0x0 Drivers\STM32F4xx_HAL_Driver\Src\stm32f4xx_ll_usb.o
 .text.USB_ActivateDedicatedEndpoint
                0x00000000       0xbc Drivers\STM32F4xx_HAL_Driver\Src\stm32f4xx_ll_usb.o
 .text.USB_StopDevice
                0x00000000       0x42 Drivers\STM32F4xx_HAL_Driver\Src\stm32f4xx_ll_usb.o
 .text.USB_ClearInterrupts
                0x00000000        0x8 Drivers\STM32F4xx_HAL_Driver\Src\stm32f4xx_ll_usb.o
 .text.USB_HostInit
                0x00000000       0xe4 Drivers\STM32F4xx_HAL_Driver\Src\stm32f4xx_ll_usb.o
 .text.USB_InitFSLSPClkSel
                0x00000000       0x3a Drivers\STM32F4xx_HAL_Driver\Src\stm32f4xx_ll_usb.o
 .text.USB_ResetPort
                0x00000000       0x32 Drivers\STM32F4xx_HAL_Driver\Src\stm32f4xx_ll_usb.o
 .text.USB_DriveVbus
                0x00000000       0x3c Drivers\STM32F4xx_HAL_Driver\Src\stm32f4xx_ll_usb.o
 .text.USB_GetHostSpeed
                0x00000000       0x12 Drivers\STM32F4xx_HAL_Driver\Src\stm32f4xx_ll_usb.o
 .text.USB_GetCurrentFrame
                0x00000000        0xa Drivers\STM32F4xx_HAL_Driver\Src\stm32f4xx_ll_usb.o
 .text.USB_HC_Init
                0x00000000       0xd8 Drivers\STM32F4xx_HAL_Driver\Src\stm32f4xx_ll_usb.o
 .text.USB_HC_StartXfer
                0x00000000      0x27c Drivers\STM32F4xx_HAL_Driver\Src\stm32f4xx_ll_usb.o
 .text.USB_HC_ReadInterrupt
                0x00000000       0x1e Drivers\STM32F4xx_HAL_Driver\Src\stm32f4xx_ll_usb.o
 .text.USB_HC_Halt
                0x00000000      0x1d2 Drivers\STM32F4xx_HAL_Driver\Src\stm32f4xx_ll_usb.o
 .text.USB_DoPing
                0x00000000       0x78 Drivers\STM32F4xx_HAL_Driver\Src\stm32f4xx_ll_usb.o
 .text.USB_StopHost
                0x00000000      0x108 Drivers\STM32F4xx_HAL_Driver\Src\stm32f4xx_ll_usb.o
 .bss.debug.8785
                0x00000000        0x4 Drivers\STM32F4xx_HAL_Driver\Src\stm32f4xx_ll_usb.o
 .text          0x00000000        0x0 Middlewares\ST\STM32_USB_Device_Library\App\Src\usb_device.o
 .data          0x00000000        0x0 Middlewares\ST\STM32_USB_Device_Library\App\Src\usb_device.o
 .bss           0x00000000        0x0 Middlewares\ST\STM32_USB_Device_Library\App\Src\usb_device.o
 .text          0x00000000        0x0 Middlewares\ST\STM32_USB_Device_Library\App\Src\usbd_conf.o
 .data          0x00000000        0x0 Middlewares\ST\STM32_USB_Device_Library\App\Src\usbd_conf.o
 .bss           0x00000000        0x0 Middlewares\ST\STM32_USB_Device_Library\App\Src\usbd_conf.o
 .text.HAL_PCD_MspDeInit
                0x00000000       0x34 Middlewares\ST\STM32_USB_Device_Library\App\Src\usbd_conf.o
 .text.USBD_LL_DeInit
                0x00000000       0x1c Middlewares\ST\STM32_USB_Device_Library\App\Src\usbd_conf.o
 .text.USBD_LL_Stop
                0x00000000       0x1c Middlewares\ST\STM32_USB_Device_Library\App\Src\usbd_conf.o
 .text.USBD_LL_FlushEP
                0x00000000       0x24 Middlewares\ST\STM32_USB_Device_Library\App\Src\usbd_conf.o
 .text.USBD_LL_Delay
                0x00000000        0x4 Middlewares\ST\STM32_USB_Device_Library\App\Src\usbd_conf.o
 .text          0x00000000        0x0 Middlewares\ST\STM32_USB_Device_Library\App\Src\usbd_desc.o
 .data          0x00000000        0x0 Middlewares\ST\STM32_USB_Device_Library\App\Src\usbd_desc.o
 .bss           0x00000000        0x0 Middlewares\ST\STM32_USB_Device_Library\App\Src\usbd_desc.o
 .text          0x00000000        0x0 Middlewares\ST\STM32_USB_Device_Library\App\Src\usbd_rndis_if.o
 .data          0x00000000        0x0 Middlewares\ST\STM32_USB_Device_Library\App\Src\usbd_rndis_if.o
 .bss           0x00000000        0x0 Middlewares\ST\STM32_USB_Device_Library\App\Src\usbd_rndis_if.o
 .text.xGetPhyLinkStatus
                0x00000000       0x10 Middlewares\ST\STM32_USB_Device_Library\App\Src\usbd_rndis_if.o
 .text          0x00000000        0x0 Middlewares\ST\STM32_USB_Device_Library\Class\CDC\Src\usbd_cdc.o
 .data          0x00000000        0x0 Middlewares\ST\STM32_USB_Device_Library\Class\CDC\Src\usbd_cdc.o
 .bss           0x00000000        0x0 Middlewares\ST\STM32_USB_Device_Library\Class\CDC\Src\usbd_cdc.o
 .text.USBD_CDC_DataIn
                0x00000000       0x12 Middlewares\ST\STM32_USB_Device_Library\Class\CDC\Src\usbd_cdc.o
 .text.USBD_CDC_EP0_RxReady
                0x00000000       0x28 Middlewares\ST\STM32_USB_Device_Library\Class\CDC\Src\usbd_cdc.o
 .text.USBD_CDC_GetFSCfgDesc
                0x00000000        0xc Middlewares\ST\STM32_USB_Device_Library\Class\CDC\Src\usbd_cdc.o
 .text.USBD_CDC_GetHSCfgDesc
                0x00000000        0xc Middlewares\ST\STM32_USB_Device_Library\Class\CDC\Src\usbd_cdc.o
 .text.USBD_CDC_GetOtherSpeedCfgDesc
                0x00000000        0xc Middlewares\ST\STM32_USB_Device_Library\Class\CDC\Src\usbd_cdc.o
 .text.USBD_CDC_GetDeviceQualifierDescriptor
                0x00000000        0xc Middlewares\ST\STM32_USB_Device_Library\Class\CDC\Src\usbd_cdc.o
 .text.USBD_CDC_DataOut
                0x00000000       0x2e Middlewares\ST\STM32_USB_Device_Library\Class\CDC\Src\usbd_cdc.o
 .text.USBD_CDC_Setup
                0x00000000       0x68 Middlewares\ST\STM32_USB_Device_Library\Class\CDC\Src\usbd_cdc.o
 .text.USBD_CDC_DeInit
                0x00000000       0x3a Middlewares\ST\STM32_USB_Device_Library\Class\CDC\Src\usbd_cdc.o
 .text.USBD_CDC_Init
                0x00000000       0x8c Middlewares\ST\STM32_USB_Device_Library\Class\CDC\Src\usbd_cdc.o
 .text.USBD_CDC_RegisterInterface
                0x00000000        0xe Middlewares\ST\STM32_USB_Device_Library\Class\CDC\Src\usbd_cdc.o
 .text.USBD_CDC_SetTxBuffer
                0x00000000       0x10 Middlewares\ST\STM32_USB_Device_Library\Class\CDC\Src\usbd_cdc.o
 .text.USBD_CDC_SetRxBuffer
                0x00000000        0xc Middlewares\ST\STM32_USB_Device_Library\Class\CDC\Src\usbd_cdc.o
 .text.USBD_CDC_TransmitPacket
                0x00000000       0x2e Middlewares\ST\STM32_USB_Device_Library\Class\CDC\Src\usbd_cdc.o
 .text.USBD_CDC_ReceivePacket
                0x00000000       0x26 Middlewares\ST\STM32_USB_Device_Library\Class\CDC\Src\usbd_cdc.o
 .bss.ifalt.9660
                0x00000000        0x1 Middlewares\ST\STM32_USB_Device_Library\Class\CDC\Src\usbd_cdc.o
 .data.USBD_CDC
                0x00000000       0x38 Middlewares\ST\STM32_USB_Device_Library\Class\CDC\Src\usbd_cdc.o
 .data.USBD_CDC_CfgFSDesc
                0x00000000       0x43 Middlewares\ST\STM32_USB_Device_Library\Class\CDC\Src\usbd_cdc.o
 .data.USBD_CDC_CfgHSDesc
                0x00000000       0x43 Middlewares\ST\STM32_USB_Device_Library\Class\CDC\Src\usbd_cdc.o
 .data.USBD_CDC_DeviceQualifierDesc
                0x00000000        0xa Middlewares\ST\STM32_USB_Device_Library\Class\CDC\Src\usbd_cdc.o
 .data.USBD_CDC_OtherSpeedCfgDesc
                0x00000000       0x43 Middlewares\ST\STM32_USB_Device_Library\Class\CDC\Src\usbd_cdc.o
 .debug_info    0x00000000     0x14f6 Middlewares\ST\STM32_USB_Device_Library\Class\CDC\Src\usbd_cdc.o
 .debug_abbrev  0x00000000      0x2e8 Middlewares\ST\STM32_USB_Device_Library\Class\CDC\Src\usbd_cdc.o
 .debug_loc     0x00000000      0x4cf Middlewares\ST\STM32_USB_Device_Library\Class\CDC\Src\usbd_cdc.o
 .debug_aranges
                0x00000000       0x90 Middlewares\ST\STM32_USB_Device_Library\Class\CDC\Src\usbd_cdc.o
 .debug_ranges  0x00000000       0x80 Middlewares\ST\STM32_USB_Device_Library\Class\CDC\Src\usbd_cdc.o
 .debug_line    0x00000000      0x549 Middlewares\ST\STM32_USB_Device_Library\Class\CDC\Src\usbd_cdc.o
 .debug_str     0x00000000      0xd31 Middlewares\ST\STM32_USB_Device_Library\Class\CDC\Src\usbd_cdc.o
 .comment       0x00000000       0x7d Middlewares\ST\STM32_USB_Device_Library\Class\CDC\Src\usbd_cdc.o
 .debug_frame   0x00000000      0x14c Middlewares\ST\STM32_USB_Device_Library\Class\CDC\Src\usbd_cdc.o
 .ARM.attributes
                0x00000000       0x39 Middlewares\ST\STM32_USB_Device_Library\Class\CDC\Src\usbd_cdc.o
 .text          0x00000000        0x0 Middlewares\ST\STM32_USB_Device_Library\Class\Composite\Src\usbd_composite.o
 .data          0x00000000        0x0 Middlewares\ST\STM32_USB_Device_Library\Class\Composite\Src\usbd_composite.o
 .bss           0x00000000        0x0 Middlewares\ST\STM32_USB_Device_Library\Class\Composite\Src\usbd_composite.o
 .text.USBD_COMPOSITE_GetClassIndexFromEP
                0x00000000       0x6c Middlewares\ST\STM32_USB_Device_Library\Class\Composite\Src\usbd_composite.o
 .data.USBD_COMPOSITE_CfgHSDesc
                0x00000000        0x9 Middlewares\ST\STM32_USB_Device_Library\Class\Composite\Src\usbd_composite.o
 .data.USBD_COMPOSITE_OtherSpeedCfgDesc
                0x00000000        0x9 Middlewares\ST\STM32_USB_Device_Library\Class\Composite\Src\usbd_composite.o
 .text          0x00000000        0x0 Middlewares\ST\STM32_USB_Device_Library\Class\RNDIS\Src\usbd_rndis.o
 .data          0x00000000        0x0 Middlewares\ST\STM32_USB_Device_Library\Class\RNDIS\Src\usbd_rndis.o
 .bss           0x00000000        0x0 Middlewares\ST\STM32_USB_Device_Library\Class\RNDIS\Src\usbd_rndis.o
 .text          0x00000000        0x0 Middlewares\ST\STM32_USB_Device_Library\Core\Src\usbd_core.o
 .data          0x00000000        0x0 Middlewares\ST\STM32_USB_Device_Library\Core\Src\usbd_core.o
 .bss           0x00000000        0x0 Middlewares\ST\STM32_USB_Device_Library\Core\Src\usbd_core.o
 .text.USBD_DeInit
                0x00000000       0x24 Middlewares\ST\STM32_USB_Device_Library\Core\Src\usbd_core.o
 .text.USBD_Stop
                0x00000000       0x18 Middlewares\ST\STM32_USB_Device_Library\Core\Src\usbd_core.o
 .text.USBD_RunTestMode
                0x00000000        0x4 Middlewares\ST\STM32_USB_Device_Library\Core\Src\usbd_core.o
 .text          0x00000000        0x0 Middlewares\ST\STM32_USB_Device_Library\Core\Src\usbd_ctlreq.o
 .data          0x00000000        0x0 Middlewares\ST\STM32_USB_Device_Library\Core\Src\usbd_ctlreq.o
 .bss           0x00000000        0x0 Middlewares\ST\STM32_USB_Device_Library\Core\Src\usbd_ctlreq.o
 .text.USBD_CtlError
                0x00000000       0x16 Middlewares\ST\STM32_USB_Device_Library\Core\Src\usbd_ctlreq.o
 .text          0x00000000        0x0 Middlewares\ST\STM32_USB_Device_Library\Core\Src\usbd_ioreq.o
 .data          0x00000000        0x0 Middlewares\ST\STM32_USB_Device_Library\Core\Src\usbd_ioreq.o
 .bss           0x00000000        0x0 Middlewares\ST\STM32_USB_Device_Library\Core\Src\usbd_ioreq.o
 .text.USBD_GetRxCount
                0x00000000        0xa Middlewares\ST\STM32_USB_Device_Library\Core\Src\usbd_ioreq.o
 .text          0x00000000        0x0 Middlewares\Third_Party\FreeRTOS\Source\CMSIS_RTOS\cmsis_os.o
 .data          0x00000000        0x0 Middlewares\Third_Party\FreeRTOS\Source\CMSIS_RTOS\cmsis_os.o
 .bss           0x00000000        0x0 Middlewares\Third_Party\FreeRTOS\Source\CMSIS_RTOS\cmsis_os.o
 .text.osKernelRunning
                0x00000000       0x10 Middlewares\Third_Party\FreeRTOS\Source\CMSIS_RTOS\cmsis_os.o
 .text.osKernelSysTick
                0x00000000        0xe Middlewares\Third_Party\FreeRTOS\Source\CMSIS_RTOS\cmsis_os.o
 .text.osThreadGetId
                0x00000000        0x4 Middlewares\Third_Party\FreeRTOS\Source\CMSIS_RTOS\cmsis_os.o
 .text.osThreadTerminate
                0x00000000        0xa Middlewares\Third_Party\FreeRTOS\Source\CMSIS_RTOS\cmsis_os.o
 .text.osThreadYield
                0x00000000       0x18 Middlewares\Third_Party\FreeRTOS\Source\CMSIS_RTOS\cmsis_os.o
 .text.osThreadSetPriority
                0x00000000       0x12 Middlewares\Third_Party\FreeRTOS\Source\CMSIS_RTOS\cmsis_os.o
 .text.osThreadGetPriority
                0x00000000       0x20 Middlewares\Third_Party\FreeRTOS\Source\CMSIS_RTOS\cmsis_os.o
 .text.osTimerCreate
                0x00000000        0x4 Middlewares\Third_Party\FreeRTOS\Source\CMSIS_RTOS\cmsis_os.o
 .text.osTimerStart
                0x00000000        0x4 Middlewares\Third_Party\FreeRTOS\Source\CMSIS_RTOS\cmsis_os.o
 .text.osTimerStop
                0x00000000        0x4 Middlewares\Third_Party\FreeRTOS\Source\CMSIS_RTOS\cmsis_os.o
 .text.osTimerDelete
                0x00000000        0x4 Middlewares\Third_Party\FreeRTOS\Source\CMSIS_RTOS\cmsis_os.o
 .text.osSignalSet
                0x00000000       0x54 Middlewares\Third_Party\FreeRTOS\Source\CMSIS_RTOS\cmsis_os.o
 .text.osSignalWait
                0x00000000       0x48 Middlewares\Third_Party\FreeRTOS\Source\CMSIS_RTOS\cmsis_os.o
 .text.osMutexCreate
                0x00000000        0x6 Middlewares\Third_Party\FreeRTOS\Source\CMSIS_RTOS\cmsis_os.o
 .text.osMutexWait
                0x00000000       0x50 Middlewares\Third_Party\FreeRTOS\Source\CMSIS_RTOS\cmsis_os.o
 .text.osSemaphoreCreate
                0x00000000       0x2a Middlewares\Third_Party\FreeRTOS\Source\CMSIS_RTOS\cmsis_os.o
 .text.osSemaphoreWait
                0x00000000       0x50 Middlewares\Third_Party\FreeRTOS\Source\CMSIS_RTOS\cmsis_os.o
 .text.osSemaphoreRelease
                0x00000000       0x48 Middlewares\Third_Party\FreeRTOS\Source\CMSIS_RTOS\cmsis_os.o
 .text.osMutexRelease
                0x00000000        0x4 Middlewares\Third_Party\FreeRTOS\Source\CMSIS_RTOS\cmsis_os.o
 .text.osPoolCreate
                0x00000000       0x6c Middlewares\Third_Party\FreeRTOS\Source\CMSIS_RTOS\cmsis_os.o
 .text.osPoolAlloc
                0x00000000       0x68 Middlewares\Third_Party\FreeRTOS\Source\CMSIS_RTOS\cmsis_os.o
 .text.osPoolCAlloc
                0x00000000        0xe Middlewares\Third_Party\FreeRTOS\Source\CMSIS_RTOS\cmsis_os.o
 .text.osPoolFree
                0x00000000       0x2a Middlewares\Third_Party\FreeRTOS\Source\CMSIS_RTOS\cmsis_os.o
 .text.osMessageCreate
                0x00000000        0x8 Middlewares\Third_Party\FreeRTOS\Source\CMSIS_RTOS\cmsis_os.o
 .text.osMessagePut
                0x00000000       0x50 Middlewares\Third_Party\FreeRTOS\Source\CMSIS_RTOS\cmsis_os.o
 .text.osMessageGet
                0x00000000       0x74 Middlewares\Third_Party\FreeRTOS\Source\CMSIS_RTOS\cmsis_os.o
 .text.osMailCreate
                0x00000000       0x56 Middlewares\Third_Party\FreeRTOS\Source\CMSIS_RTOS\cmsis_os.o
 .text.osMailAlloc
                0x00000000        0xa Middlewares\Third_Party\FreeRTOS\Source\CMSIS_RTOS\cmsis_os.o
 .text.osMailCAlloc
                0x00000000       0x20 Middlewares\Third_Party\FreeRTOS\Source\CMSIS_RTOS\cmsis_os.o
 .text.osMailPut
                0x00000000       0x58 Middlewares\Third_Party\FreeRTOS\Source\CMSIS_RTOS\cmsis_os.o
 .text.osMailGet
                0x00000000       0x78 Middlewares\Third_Party\FreeRTOS\Source\CMSIS_RTOS\cmsis_os.o
 .text.osMailFree
                0x00000000        0xc Middlewares\Third_Party\FreeRTOS\Source\CMSIS_RTOS\cmsis_os.o
 .text.osThreadSuspend
                0x00000000        0xa Middlewares\Third_Party\FreeRTOS\Source\CMSIS_RTOS\cmsis_os.o
 .text.osThreadResume
                0x00000000       0x30 Middlewares\Third_Party\FreeRTOS\Source\CMSIS_RTOS\cmsis_os.o
 .text.osThreadSuspendAll
                0x00000000        0xa Middlewares\Third_Party\FreeRTOS\Source\CMSIS_RTOS\cmsis_os.o
 .text.osThreadResumeAll
                0x00000000       0x10 Middlewares\Third_Party\FreeRTOS\Source\CMSIS_RTOS\cmsis_os.o
 .text.osDelayUntil
                0x00000000        0x4 Middlewares\Third_Party\FreeRTOS\Source\CMSIS_RTOS\cmsis_os.o
 .text.osAbortDelay
                0x00000000        0x4 Middlewares\Third_Party\FreeRTOS\Source\CMSIS_RTOS\cmsis_os.o
 .text.osThreadList
                0x00000000        0x4 Middlewares\Third_Party\FreeRTOS\Source\CMSIS_RTOS\cmsis_os.o
 .text.osMessagePeek
                0x00000000       0x3a Middlewares\Third_Party\FreeRTOS\Source\CMSIS_RTOS\cmsis_os.o
 .text.osMessageWaiting
                0x00000000        0xe Middlewares\Third_Party\FreeRTOS\Source\CMSIS_RTOS\cmsis_os.o
 .text.osMessageAvailableSpace
                0x00000000        0x4 Middlewares\Third_Party\FreeRTOS\Source\CMSIS_RTOS\cmsis_os.o
 .text.osMessageDelete
                0x00000000       0x14 Middlewares\Third_Party\FreeRTOS\Source\CMSIS_RTOS\cmsis_os.o
 .text.osSemaphoreDelete
                0x00000000        0x4 Middlewares\Third_Party\FreeRTOS\Source\CMSIS_RTOS\cmsis_os.o
 .text.osMutexDelete
                0x00000000        0x4 Middlewares\Third_Party\FreeRTOS\Source\CMSIS_RTOS\cmsis_os.o
 .text.osRecursiveMutexCreate
                0x00000000        0x4 Middlewares\Third_Party\FreeRTOS\Source\CMSIS_RTOS\cmsis_os.o
 .text.osRecursiveMutexRelease
                0x00000000        0x4 Middlewares\Third_Party\FreeRTOS\Source\CMSIS_RTOS\cmsis_os.o
 .text.osRecursiveMutexWait
                0x00000000        0x4 Middlewares\Third_Party\FreeRTOS\Source\CMSIS_RTOS\cmsis_os.o
 .text.osSemaphoreGetCount
                0x00000000        0x4 Middlewares\Third_Party\FreeRTOS\Source\CMSIS_RTOS\cmsis_os.o
 .text          0x00000000        0x0 Middlewares\Third_Party\FreeRTOS\Source\croutine.o
 .data          0x00000000        0x0 Middlewares\Third_Party\FreeRTOS\Source\croutine.o
 .bss           0x00000000        0x0 Middlewares\Third_Party\FreeRTOS\Source\croutine.o
 .debug_info    0x00000000       0x9a Middlewares\Third_Party\FreeRTOS\Source\croutine.o
 .debug_abbrev  0x00000000       0x44 Middlewares\Third_Party\FreeRTOS\Source\croutine.o
 .debug_aranges
                0x00000000       0x18 Middlewares\Third_Party\FreeRTOS\Source\croutine.o
 .debug_line    0x00000000      0x11d Middlewares\Third_Party\FreeRTOS\Source\croutine.o
 .debug_str     0x00000000      0x1eb Middlewares\Third_Party\FreeRTOS\Source\croutine.o
 .comment       0x00000000       0x7d Middlewares\Third_Party\FreeRTOS\Source\croutine.o
 .ARM.attributes
                0x00000000       0x39 Middlewares\Third_Party\FreeRTOS\Source\croutine.o
 .text          0x00000000        0x0 Middlewares\Third_Party\FreeRTOS\Source\event_groups.o
 .data          0x00000000        0x0 Middlewares\Third_Party\FreeRTOS\Source\event_groups.o
 .bss           0x00000000        0x0 Middlewares\Third_Party\FreeRTOS\Source\event_groups.o
 .text.xEventGroupGetBitsFromISR
                0x00000000       0x1c Middlewares\Third_Party\FreeRTOS\Source\event_groups.o
 .text.xEventGroupSync
                0x00000000       0xd0 Middlewares\Third_Party\FreeRTOS\Source\event_groups.o
 .text.vEventGroupSetBitsCallback
                0x00000000        0x4 Middlewares\Third_Party\FreeRTOS\Source\event_groups.o
 .text.vEventGroupClearBitsCallback
                0x00000000        0x4 Middlewares\Third_Party\FreeRTOS\Source\event_groups.o
 .text          0x00000000        0x0 Middlewares\Third_Party\FreeRTOS\Source\list.o
 .data          0x00000000        0x0 Middlewares\Third_Party\FreeRTOS\Source\list.o
 .bss           0x00000000        0x0 Middlewares\Third_Party\FreeRTOS\Source\list.o
 .text          0x00000000        0x0 Middlewares\Third_Party\FreeRTOS\Source\portable\GCC\ARM_CM4F\port.o
 .data          0x00000000        0x0 Middlewares\Third_Party\FreeRTOS\Source\portable\GCC\ARM_CM4F\port.o
 .bss           0x00000000        0x0 Middlewares\Third_Party\FreeRTOS\Source\portable\GCC\ARM_CM4F\port.o
 .text.vPortEndScheduler
                0x00000000       0x24 Middlewares\Third_Party\FreeRTOS\Source\portable\GCC\ARM_CM4F\port.o
 .text          0x00000000        0x0 Middlewares\Third_Party\FreeRTOS\Source\portable\MemMang\heap_4.o
 .data          0x00000000        0x0 Middlewares\Third_Party\FreeRTOS\Source\portable\MemMang\heap_4.o
 .bss           0x00000000        0x0 Middlewares\Third_Party\FreeRTOS\Source\portable\MemMang\heap_4.o
 .text.xPortGetFreeHeapSize
                0x00000000        0xc Middlewares\Third_Party\FreeRTOS\Source\portable\MemMang\heap_4.o
 .text.xPortGetMinimumEverFreeHeapSize
                0x00000000        0xc Middlewares\Third_Party\FreeRTOS\Source\portable\MemMang\heap_4.o
 .text.vPortInitialiseBlocks
                0x00000000        0x2 Middlewares\Third_Party\FreeRTOS\Source\portable\MemMang\heap_4.o
 .text          0x00000000        0x0 Middlewares\Third_Party\FreeRTOS\Source\queue.o
 .data          0x00000000        0x0 Middlewares\Third_Party\FreeRTOS\Source\queue.o
 .bss           0x00000000        0x0 Middlewares\Third_Party\FreeRTOS\Source\queue.o
 .text.xQueueCreateMutex
                0x00000000       0x24 Middlewares\Third_Party\FreeRTOS\Source\queue.o
 .text.xQueueGiveFromISR
                0x00000000       0xa8 Middlewares\Third_Party\FreeRTOS\Source\queue.o
 .text.xQueueReceiveFromISR
                0x00000000       0xa0 Middlewares\Third_Party\FreeRTOS\Source\queue.o
 .text.xQueuePeekFromISR
                0x00000000       0x78 Middlewares\Third_Party\FreeRTOS\Source\queue.o
 .text.uxQueueSpacesAvailable
                0x00000000       0x2a Middlewares\Third_Party\FreeRTOS\Source\queue.o
 .text.uxQueueMessagesWaitingFromISR
                0x00000000       0x18 Middlewares\Third_Party\FreeRTOS\Source\queue.o
 .text.xQueueIsQueueEmptyFromISR
                0x00000000       0x1e Middlewares\Third_Party\FreeRTOS\Source\queue.o
 .text.xQueueIsQueueFullFromISR
                0x00000000       0x20 Middlewares\Third_Party\FreeRTOS\Source\queue.o
 .text.pcQueueGetName
                0x00000000       0x24 Middlewares\Third_Party\FreeRTOS\Source\queue.o
 .text          0x00000000        0x0 Middlewares\Third_Party\FreeRTOS\Source\tasks.o
 .data          0x00000000        0x0 Middlewares\Third_Party\FreeRTOS\Source\tasks.o
 .bss           0x00000000        0x0 Middlewares\Third_Party\FreeRTOS\Source\tasks.o
 .text.prvTaskIsTaskSuspended
                0x00000000       0x2c Middlewares\Third_Party\FreeRTOS\Source\tasks.o
 .text.vTaskDelete
                0x00000000       0xd8 Middlewares\Third_Party\FreeRTOS\Source\tasks.o
 .text.uxTaskPriorityGet
                0x00000000       0x1c Middlewares\Third_Party\FreeRTOS\Source\tasks.o
 .text.uxTaskPriorityGetFromISR
                0x00000000       0x30 Middlewares\Third_Party\FreeRTOS\Source\tasks.o
 .text.vTaskPrioritySet
                0x00000000       0xd8 Middlewares\Third_Party\FreeRTOS\Source\tasks.o
 .text.vTaskResume
                0x00000000       0x84 Middlewares\Third_Party\FreeRTOS\Source\tasks.o
 .text.xTaskResumeFromISR
                0x00000000       0xa0 Middlewares\Third_Party\FreeRTOS\Source\tasks.o
 .text.vTaskEndScheduler
                0x00000000       0x20 Middlewares\Third_Party\FreeRTOS\Source\tasks.o
 .text.xTaskGetTickCountFromISR
                0x00000000       0x10 Middlewares\Third_Party\FreeRTOS\Source\tasks.o
 .text.uxTaskGetNumberOfTasks
                0x00000000        0xc Middlewares\Third_Party\FreeRTOS\Source\tasks.o
 .text.pcTaskGetName
                0x00000000       0x24 Middlewares\Third_Party\FreeRTOS\Source\tasks.o
 .text.vTaskSuspend
                0x00000000       0xcc Middlewares\Third_Party\FreeRTOS\Source\tasks.o
 .text.xTaskNotifyWait
                0x00000000       0x8c Middlewares\Third_Party\FreeRTOS\Source\tasks.o
 .text.xTaskGenericNotify
                0x00000000       0xd0 Middlewares\Third_Party\FreeRTOS\Source\tasks.o
 .text.xTaskGenericNotifyFromISR
                0x00000000      0x104 Middlewares\Third_Party\FreeRTOS\Source\tasks.o
 .text.xTaskNotifyStateClear
                0x00000000       0x30 Middlewares\Third_Party\FreeRTOS\Source\tasks.o
 .text          0x00000000        0x0 Middlewares\Third_Party\FreeRTOS\Source\timers.o
 .data          0x00000000        0x0 Middlewares\Third_Party\FreeRTOS\Source\timers.o
 .bss           0x00000000        0x0 Middlewares\Third_Party\FreeRTOS\Source\timers.o
 .debug_info    0x00000000      0x8b0 Middlewares\Third_Party\FreeRTOS\Source\timers.o
 .debug_abbrev  0x00000000      0x155 Middlewares\Third_Party\FreeRTOS\Source\timers.o
 .debug_aranges
                0x00000000       0x18 Middlewares\Third_Party\FreeRTOS\Source\timers.o
 .debug_line    0x00000000      0x21c Middlewares\Third_Party\FreeRTOS\Source\timers.o
 .debug_str     0x00000000      0x60f Middlewares\Third_Party\FreeRTOS\Source\timers.o
 .comment       0x00000000       0x7d Middlewares\Third_Party\FreeRTOS\Source\timers.o
 .ARM.attributes
                0x00000000       0x39 Middlewares\Third_Party\FreeRTOS\Source\timers.o
 .text          0x00000000        0x0 Middlewares\Third_Party\FreeRTOS-Plus\FreeRTOS-Plus-TCP\FreeRTOS_ARP.o
 .data          0x00000000        0x0 Middlewares\Third_Party\FreeRTOS-Plus\FreeRTOS-Plus-TCP\FreeRTOS_ARP.o
 .bss           0x00000000        0x0 Middlewares\Third_Party\FreeRTOS-Plus\FreeRTOS-Plus-TCP\FreeRTOS_ARP.o
 .text.FreeRTOS_ClearARP
                0x00000000       0x10 Middlewares\Third_Party\FreeRTOS-Plus\FreeRTOS-Plus-TCP\FreeRTOS_ARP.o
 .text          0x00000000        0x0 Middlewares\Third_Party\FreeRTOS-Plus\FreeRTOS-Plus-TCP\FreeRTOS_DHCP.o
 .data          0x00000000        0x0 Middlewares\Third_Party\FreeRTOS-Plus\FreeRTOS-Plus-TCP\FreeRTOS_DHCP.o
 .bss           0x00000000        0x0 Middlewares\Third_Party\FreeRTOS-Plus\FreeRTOS-Plus-TCP\FreeRTOS_DHCP.o
 .text          0x00000000        0x0 Middlewares\Third_Party\FreeRTOS-Plus\FreeRTOS-Plus-TCP\FreeRTOS_DNS.o
 .data          0x00000000        0x0 Middlewares\Third_Party\FreeRTOS-Plus\FreeRTOS-Plus-TCP\FreeRTOS_DNS.o
 .bss           0x00000000        0x0 Middlewares\Third_Party\FreeRTOS-Plus\FreeRTOS-Plus-TCP\FreeRTOS_DNS.o
 .text.FreeRTOS_dnslookup
                0x00000000       0x38 Middlewares\Third_Party\FreeRTOS-Plus\FreeRTOS-Plus-TCP\FreeRTOS_DNS.o
 .text.FreeRTOS_gethostbyname_cancel
                0x00000000        0x4 Middlewares\Third_Party\FreeRTOS-Plus\FreeRTOS-Plus-TCP\FreeRTOS_DNS.o
 .text.FreeRTOS_gethostbyname_a
                0x00000000      0x27c Middlewares\Third_Party\FreeRTOS-Plus\FreeRTOS-Plus-TCP\FreeRTOS_DNS.o
 .text.FreeRTOS_gethostbyname
                0x00000000        0xa Middlewares\Third_Party\FreeRTOS-Plus\FreeRTOS-Plus-TCP\FreeRTOS_DNS.o
 .bss.ulAddressLength.7260
                0x00000000        0x4 Middlewares\Third_Party\FreeRTOS-Plus\FreeRTOS-Plus-TCP\FreeRTOS_DNS.o
 .bss.usIdentifier.7248
                0x00000000        0x2 Middlewares\Third_Party\FreeRTOS-Plus\FreeRTOS-Plus-TCP\FreeRTOS_DNS.o
 .bss.xSocket.7343
                0x00000000        0x4 Middlewares\Third_Party\FreeRTOS-Plus\FreeRTOS-Plus-TCP\FreeRTOS_DNS.o
 .rodata.xDefaultPartDNSHeader.7283
                0x00000000        0xc Middlewares\Third_Party\FreeRTOS-Plus\FreeRTOS-Plus-TCP\FreeRTOS_DNS.o
 .text          0x00000000        0x0 Middlewares\Third_Party\FreeRTOS-Plus\FreeRTOS-Plus-TCP\FreeRTOS_IP.o
 .data          0x00000000        0x0 Middlewares\Third_Party\FreeRTOS-Plus\FreeRTOS-Plus-TCP\FreeRTOS_IP.o
 .bss           0x00000000        0x0 Middlewares\Third_Party\FreeRTOS-Plus\FreeRTOS-Plus-TCP\FreeRTOS_IP.o
 .text.FreeRTOS_GetAddressConfiguration
                0x00000000       0x2c Middlewares\Third_Party\FreeRTOS-Plus\FreeRTOS-Plus-TCP\FreeRTOS_IP.o
 .text.FreeRTOS_SetAddressConfiguration
                0x00000000       0x2c Middlewares\Third_Party\FreeRTOS-Plus\FreeRTOS-Plus-TCP\FreeRTOS_IP.o
 .text.FreeRTOS_SendPingRequest
                0x00000000       0x88 Middlewares\Third_Party\FreeRTOS-Plus\FreeRTOS-Plus-TCP\FreeRTOS_IP.o
 .text.usGenerateChecksum
                0x00000000       0xe0 Middlewares\Third_Party\FreeRTOS-Plus\FreeRTOS-Plus-TCP\FreeRTOS_IP.o
 .text.usGenerateProtocolChecksum
                0x00000000       0x98 Middlewares\Third_Party\FreeRTOS-Plus\FreeRTOS-Plus-TCP\FreeRTOS_IP.o
 .text.FreeRTOS_GetIPAddress
                0x00000000        0xc Middlewares\Third_Party\FreeRTOS-Plus\FreeRTOS-Plus-TCP\FreeRTOS_IP.o
 .text.FreeRTOS_SetIPAddress
                0x00000000        0xc Middlewares\Third_Party\FreeRTOS-Plus\FreeRTOS-Plus-TCP\FreeRTOS_IP.o
 .text.FreeRTOS_GetGatewayAddress
                0x00000000        0xc Middlewares\Third_Party\FreeRTOS-Plus\FreeRTOS-Plus-TCP\FreeRTOS_IP.o
 .text.FreeRTOS_GetDNSServerAddress
                0x00000000        0xc Middlewares\Third_Party\FreeRTOS-Plus\FreeRTOS-Plus-TCP\FreeRTOS_IP.o
 .text.FreeRTOS_GetNetmask
                0x00000000        0xc Middlewares\Third_Party\FreeRTOS-Plus\FreeRTOS-Plus-TCP\FreeRTOS_IP.o
 .text.FreeRTOS_GetMACAddress
                0x00000000        0x8 Middlewares\Third_Party\FreeRTOS-Plus\FreeRTOS-Plus-TCP\FreeRTOS_IP.o
 .text.FreeRTOS_SetNetmask
                0x00000000        0xc Middlewares\Third_Party\FreeRTOS-Plus\FreeRTOS-Plus-TCP\FreeRTOS_IP.o
 .text.FreeRTOS_SetGatewayAddress
                0x00000000        0xc Middlewares\Third_Party\FreeRTOS-Plus\FreeRTOS-Plus-TCP\FreeRTOS_IP.o
 .text.vIPReloadDNSTimer
                0x00000000       0x10 Middlewares\Third_Party\FreeRTOS-Plus\FreeRTOS-Plus-TCP\FreeRTOS_IP.o
 .text.FreeRTOS_IsNetworkUp
                0x00000000        0xc Middlewares\Third_Party\FreeRTOS-Plus\FreeRTOS-Plus-TCP\FreeRTOS_IP.o
 .bss.usSequenceNumber.8135
                0x00000000        0x2 Middlewares\Third_Party\FreeRTOS-Plus\FreeRTOS-Plus-TCP\FreeRTOS_IP.o
 .text          0x00000000        0x0 Middlewares\Third_Party\FreeRTOS-Plus\FreeRTOS-Plus-TCP\FreeRTOS_Sockets.o
 .data          0x00000000        0x0 Middlewares\Third_Party\FreeRTOS-Plus\FreeRTOS-Plus-TCP\FreeRTOS_Sockets.o
 .bss           0x00000000        0x0 Middlewares\Third_Party\FreeRTOS-Plus\FreeRTOS-Plus-TCP\FreeRTOS_Sockets.o
 .text.prvFindSelectedSocket
                0x00000000       0x38 Middlewares\Third_Party\FreeRTOS-Plus\FreeRTOS-Plus-TCP\FreeRTOS_Sockets.o
 .text.FreeRTOS_CreateSocketSet
                0x00000000       0x2a Middlewares\Third_Party\FreeRTOS-Plus\FreeRTOS-Plus-TCP\FreeRTOS_Sockets.o
 .text.FreeRTOS_DeleteSocketSet
                0x00000000       0x14 Middlewares\Third_Party\FreeRTOS-Plus\FreeRTOS-Plus-TCP\FreeRTOS_Sockets.o
 .text.FreeRTOS_FD_SET
                0x00000000       0x44 Middlewares\Third_Party\FreeRTOS-Plus\FreeRTOS-Plus-TCP\FreeRTOS_Sockets.o
 .text.FreeRTOS_FD_CLR
                0x00000000       0x40 Middlewares\Third_Party\FreeRTOS-Plus\FreeRTOS-Plus-TCP\FreeRTOS_Sockets.o
 .text.FreeRTOS_FD_ISSET
                0x00000000       0x38 Middlewares\Third_Party\FreeRTOS-Plus\FreeRTOS-Plus-TCP\FreeRTOS_Sockets.o
 .text.FreeRTOS_select
                0x00000000       0x6e Middlewares\Third_Party\FreeRTOS-Plus\FreeRTOS-Plus-TCP\FreeRTOS_Sockets.o
 .text.FreeRTOS_inet_addr
                0x00000000       0x64 Middlewares\Third_Party\FreeRTOS-Plus\FreeRTOS-Plus-TCP\FreeRTOS_Sockets.o
 .text.FreeRTOS_GetLocalAddress
                0x00000000       0x18 Middlewares\Third_Party\FreeRTOS-Plus\FreeRTOS-Plus-TCP\FreeRTOS_Sockets.o
 .text.FreeRTOS_accept
                0x00000000       0xf6 Middlewares\Third_Party\FreeRTOS-Plus\FreeRTOS-Plus-TCP\FreeRTOS_Sockets.o
 .text.FreeRTOS_recv
                0x00000000      0x15e Middlewares\Third_Party\FreeRTOS-Plus\FreeRTOS-Plus-TCP\FreeRTOS_Sockets.o
 .text.FreeRTOS_get_tx_head
                0x00000000       0x2a Middlewares\Third_Party\FreeRTOS-Plus\FreeRTOS-Plus-TCP\FreeRTOS_Sockets.o
 .text.FreeRTOS_send
                0x00000000      0x160 Middlewares\Third_Party\FreeRTOS-Plus\FreeRTOS-Plus-TCP\FreeRTOS_Sockets.o
 .text.FreeRTOS_listen
                0x00000000       0x86 Middlewares\Third_Party\FreeRTOS-Plus\FreeRTOS-Plus-TCP\FreeRTOS_Sockets.o
 .text.FreeRTOS_shutdown
                0x00000000       0x36 Middlewares\Third_Party\FreeRTOS-Plus\FreeRTOS-Plus-TCP\FreeRTOS_Sockets.o
 .text.FreeRTOS_get_rx_buf
                0x00000000        0x4 Middlewares\Third_Party\FreeRTOS-Plus\FreeRTOS-Plus-TCP\FreeRTOS_Sockets.o
 .text.FreeRTOS_GetRemoteAddress
                0x00000000       0x22 Middlewares\Third_Party\FreeRTOS-Plus\FreeRTOS-Plus-TCP\FreeRTOS_Sockets.o
 .text.FreeRTOS_maywrite
                0x00000000       0x32 Middlewares\Third_Party\FreeRTOS-Plus\FreeRTOS-Plus-TCP\FreeRTOS_Sockets.o
 .text.FreeRTOS_issocketconnected
                0x00000000       0x1e Middlewares\Third_Party\FreeRTOS-Plus\FreeRTOS-Plus-TCP\FreeRTOS_Sockets.o
 .text.FreeRTOS_connect
                0x00000000       0xd6 Middlewares\Third_Party\FreeRTOS-Plus\FreeRTOS-Plus-TCP\FreeRTOS_Sockets.o
 .text.FreeRTOS_mss
                0x00000000       0x12 Middlewares\Third_Party\FreeRTOS-Plus\FreeRTOS-Plus-TCP\FreeRTOS_Sockets.o
 .text.FreeRTOS_connstatus
                0x00000000       0x12 Middlewares\Third_Party\FreeRTOS-Plus\FreeRTOS-Plus-TCP\FreeRTOS_Sockets.o
 .text.FreeRTOS_netstat
                0x00000000       0x1c Middlewares\Third_Party\FreeRTOS-Plus\FreeRTOS-Plus-TCP\FreeRTOS_Sockets.o
 .text.FreeRTOS_SignalSocketFromISR
                0x00000000       0x68 Middlewares\Third_Party\FreeRTOS-Plus\FreeRTOS-Plus-TCP\FreeRTOS_Sockets.o
 .text          0x00000000        0x0 Middlewares\Third_Party\FreeRTOS-Plus\FreeRTOS-Plus-TCP\FreeRTOS_Stream_Buffer.o
 .data          0x00000000        0x0 Middlewares\Third_Party\FreeRTOS-Plus\FreeRTOS-Plus-TCP\FreeRTOS_Stream_Buffer.o
 .bss           0x00000000        0x0 Middlewares\Third_Party\FreeRTOS-Plus\FreeRTOS-Plus-TCP\FreeRTOS_Stream_Buffer.o
 .text          0x00000000        0x0 Middlewares\Third_Party\FreeRTOS-Plus\FreeRTOS-Plus-TCP\FreeRTOS_TCP_IP.o
 .data          0x00000000        0x0 Middlewares\Third_Party\FreeRTOS-Plus\FreeRTOS-Plus-TCP\FreeRTOS_TCP_IP.o
 .bss           0x00000000        0x0 Middlewares\Third_Party\FreeRTOS-Plus\FreeRTOS-Plus-TCP\FreeRTOS_TCP_IP.o
 .text          0x00000000        0x0 Middlewares\Third_Party\FreeRTOS-Plus\FreeRTOS-Plus-TCP\FreeRTOS_TCP_WIN.o
 .data          0x00000000        0x0 Middlewares\Third_Party\FreeRTOS-Plus\FreeRTOS-Plus-TCP\FreeRTOS_TCP_WIN.o
 .bss           0x00000000        0x0 Middlewares\Third_Party\FreeRTOS-Plus\FreeRTOS-Plus-TCP\FreeRTOS_TCP_WIN.o
 .bss.xTCPWindowLoggingLevel
                0x00000000        0x4 Middlewares\Third_Party\FreeRTOS-Plus\FreeRTOS-Plus-TCP\FreeRTOS_TCP_WIN.o
 .text          0x00000000        0x0 Middlewares\Third_Party\FreeRTOS-Plus\FreeRTOS-Plus-TCP\FreeRTOS_UDP_IP.o
 .data          0x00000000        0x0 Middlewares\Third_Party\FreeRTOS-Plus\FreeRTOS-Plus-TCP\FreeRTOS_UDP_IP.o
 .bss           0x00000000        0x0 Middlewares\Third_Party\FreeRTOS-Plus\FreeRTOS-Plus-TCP\FreeRTOS_UDP_IP.o
 .text          0x00000000        0x0 Middlewares\Third_Party\FreeRTOS-Plus\FreeRTOS-Plus-TCP\portable\BufferManagement\BufferAllocation_2.o
 .data          0x00000000        0x0 Middlewares\Third_Party\FreeRTOS-Plus\FreeRTOS-Plus-TCP\portable\BufferManagement\BufferAllocation_2.o
 .bss           0x00000000        0x0 Middlewares\Third_Party\FreeRTOS-Plus\FreeRTOS-Plus-TCP\portable\BufferManagement\BufferAllocation_2.o
 .text.pucGetNetworkBuffer
                0x00000000       0x36 Middlewares\Third_Party\FreeRTOS-Plus\FreeRTOS-Plus-TCP\portable\BufferManagement\BufferAllocation_2.o
 .text.uxGetNumberOfFreeNetworkBuffers
                0x00000000        0xc Middlewares\Third_Party\FreeRTOS-Plus\FreeRTOS-Plus-TCP\portable\BufferManagement\BufferAllocation_2.o
 .text.uxGetMinimumFreeNetworkBuffers
                0x00000000        0xc Middlewares\Third_Party\FreeRTOS-Plus\FreeRTOS-Plus-TCP\portable\BufferManagement\BufferAllocation_2.o
 .text.pxResizeNetworkBufferWithDescriptor
                0x00000000       0x3a Middlewares\Third_Party\FreeRTOS-Plus\FreeRTOS-Plus-TCP\portable\BufferManagement\BufferAllocation_2.o
 .text          0x00000000        0x0 Src\freertos.o
 .data          0x00000000        0x0 Src\freertos.o
 .bss           0x00000000        0x0 Src\freertos.o
 .text          0x00000000        0x0 Src\main.o
 .data          0x00000000        0x0 Src\main.o
 .bss           0x00000000        0x0 Src\main.o
 .text.ipInitHandlerTask
                0x00000000       0x4c Src\main.o
 .text          0x00000000        0x0 Src\stm32f4xx_hal_msp.o
 .data          0x00000000        0x0 Src\stm32f4xx_hal_msp.o
 .bss           0x00000000        0x0 Src\stm32f4xx_hal_msp.o
 .text          0x00000000        0x0 Src\stm32f4xx_hal_timebase_TIM.o
 .data          0x00000000        0x0 Src\stm32f4xx_hal_timebase_TIM.o
 .bss           0x00000000        0x0 Src\stm32f4xx_hal_timebase_TIM.o
 .text.HAL_SuspendTick
                0x00000000       0x14 Src\stm32f4xx_hal_timebase_TIM.o
 .text.HAL_ResumeTick
                0x00000000       0x14 Src\stm32f4xx_hal_timebase_TIM.o
 .bss.uwIncrementState
                0x00000000        0x4 Src\stm32f4xx_hal_timebase_TIM.o
 .text          0x00000000        0x0 Src\stm32f4xx_it.o
 .data          0x00000000        0x0 Src\stm32f4xx_it.o
 .bss           0x00000000        0x0 Src\stm32f4xx_it.o
 .text          0x00000000        0x0 Src\system_stm32f4xx.o
 .data          0x00000000        0x0 Src\system_stm32f4xx.o
 .bss           0x00000000        0x0 Src\system_stm32f4xx.o
 .text.SystemCoreClockUpdate
                0x00000000       0x74 Src\system_stm32f4xx.o
 .text          0x00000000       0x14 startup\startup_stm32f411xe.o
 .data          0x00000000        0x0 startup\startup_stm32f411xe.o
 .bss           0x00000000        0x0 startup\startup_stm32f411xe.o
 .text          0x00000000        0x0 c:/program files (x86)/atollic/truestudio for stm32 9.0.0/armtools/bin/../lib/gcc/arm-atollic-eabi/6.3.1/../../../../arm-atollic-eabi/lib/armv7e-m/fpu\libc_nano.a(lib_a-init.o)
 .data          0x00000000        0x0 c:/program files (x86)/atollic/truestudio for stm32 9.0.0/armtools/bin/../lib/gcc/arm-atollic-eabi/6.3.1/../../../../arm-atollic-eabi/lib/armv7e-m/fpu\libc_nano.a(lib_a-init.o)
 .bss           0x00000000        0x0 c:/program files (x86)/atollic/truestudio for stm32 9.0.0/armtools/bin/../lib/gcc/arm-atollic-eabi/6.3.1/../../../../arm-atollic-eabi/lib/armv7e-m/fpu\libc_nano.a(lib_a-init.o)
 .text          0x00000000        0x0 c:/program files (x86)/atollic/truestudio for stm32 9.0.0/armtools/bin/../lib/gcc/arm-atollic-eabi/6.3.1/../../../../arm-atollic-eabi/lib/armv7e-m/fpu\libc_nano.a(lib_a-malloc.o)
 .data          0x00000000        0x0 c:/program files (x86)/atollic/truestudio for stm32 9.0.0/armtools/bin/../lib/gcc/arm-atollic-eabi/6.3.1/../../../../arm-atollic-eabi/lib/armv7e-m/fpu\libc_nano.a(lib_a-malloc.o)
 .bss           0x00000000        0x0 c:/program files (x86)/atollic/truestudio for stm32 9.0.0/armtools/bin/../lib/gcc/arm-atollic-eabi/6.3.1/../../../../arm-atollic-eabi/lib/armv7e-m/fpu\libc_nano.a(lib_a-malloc.o)
 .text          0x00000000        0x0 c:/program files (x86)/atollic/truestudio for stm32 9.0.0/armtools/bin/../lib/gcc/arm-atollic-eabi/6.3.1/../../../../arm-atollic-eabi/lib/armv7e-m/fpu\libc_nano.a(lib_a-memcmp.o)
 .data          0x00000000        0x0 c:/program files (x86)/atollic/truestudio for stm32 9.0.0/armtools/bin/../lib/gcc/arm-atollic-eabi/6.3.1/../../../../arm-atollic-eabi/lib/armv7e-m/fpu\libc_nano.a(lib_a-memcmp.o)
 .bss           0x00000000        0x0 c:/program files (x86)/atollic/truestudio for stm32 9.0.0/armtools/bin/../lib/gcc/arm-atollic-eabi/6.3.1/../../../../arm-atollic-eabi/lib/armv7e-m/fpu\libc_nano.a(lib_a-memcmp.o)
 .text          0x00000000        0x0 c:/program files (x86)/atollic/truestudio for stm32 9.0.0/armtools/bin/../lib/gcc/arm-atollic-eabi/6.3.1/../../../../arm-atollic-eabi/lib/armv7e-m/fpu\libc_nano.a(lib_a-memcpy-stub.o)
 .data          0x00000000        0x0 c:/program files (x86)/atollic/truestudio for stm32 9.0.0/armtools/bin/../lib/gcc/arm-atollic-eabi/6.3.1/../../../../arm-atollic-eabi/lib/armv7e-m/fpu\libc_nano.a(lib_a-memcpy-stub.o)
 .bss           0x00000000        0x0 c:/program files (x86)/atollic/truestudio for stm32 9.0.0/armtools/bin/../lib/gcc/arm-atollic-eabi/6.3.1/../../../../arm-atollic-eabi/lib/armv7e-m/fpu\libc_nano.a(lib_a-memcpy-stub.o)
 .text          0x00000000        0x0 c:/program files (x86)/atollic/truestudio for stm32 9.0.0/armtools/bin/../lib/gcc/arm-atollic-eabi/6.3.1/../../../../arm-atollic-eabi/lib/armv7e-m/fpu\libc_nano.a(lib_a-memmove.o)
 .data          0x00000000        0x0 c:/program files (x86)/atollic/truestudio for stm32 9.0.0/armtools/bin/../lib/gcc/arm-atollic-eabi/6.3.1/../../../../arm-atollic-eabi/lib/armv7e-m/fpu\libc_nano.a(lib_a-memmove.o)
 .bss           0x00000000        0x0 c:/program files (x86)/atollic/truestudio for stm32 9.0.0/armtools/bin/../lib/gcc/arm-atollic-eabi/6.3.1/../../../../arm-atollic-eabi/lib/armv7e-m/fpu\libc_nano.a(lib_a-memmove.o)
 .text          0x00000000        0x0 c:/program files (x86)/atollic/truestudio for stm32 9.0.0/armtools/bin/../lib/gcc/arm-atollic-eabi/6.3.1/../../../../arm-atollic-eabi/lib/armv7e-m/fpu\libc_nano.a(lib_a-memset.o)
 .data          0x00000000        0x0 c:/program files (x86)/atollic/truestudio for stm32 9.0.0/armtools/bin/../lib/gcc/arm-atollic-eabi/6.3.1/../../../../arm-atollic-eabi/lib/armv7e-m/fpu\libc_nano.a(lib_a-memset.o)
 .bss           0x00000000        0x0 c:/program files (x86)/atollic/truestudio for stm32 9.0.0/armtools/bin/../lib/gcc/arm-atollic-eabi/6.3.1/../../../../arm-atollic-eabi/lib/armv7e-m/fpu\libc_nano.a(lib_a-memset.o)
 .text          0x00000000        0x0 c:/program files (x86)/atollic/truestudio for stm32 9.0.0/armtools/bin/../lib/gcc/arm-atollic-eabi/6.3.1/../../../../arm-atollic-eabi/lib/armv7e-m/fpu\libc_nano.a(lib_a-nano-freer.o)
 .data          0x00000000        0x0 c:/program files (x86)/atollic/truestudio for stm32 9.0.0/armtools/bin/../lib/gcc/arm-atollic-eabi/6.3.1/../../../../arm-atollic-eabi/lib/armv7e-m/fpu\libc_nano.a(lib_a-nano-freer.o)
 .bss           0x00000000        0x0 c:/program files (x86)/atollic/truestudio for stm32 9.0.0/armtools/bin/../lib/gcc/arm-atollic-eabi/6.3.1/../../../../arm-atollic-eabi/lib/armv7e-m/fpu\libc_nano.a(lib_a-nano-freer.o)
 .text          0x00000000        0x0 c:/program files (x86)/atollic/truestudio for stm32 9.0.0/armtools/bin/../lib/gcc/arm-atollic-eabi/6.3.1/../../../../arm-atollic-eabi/lib/armv7e-m/fpu\libc_nano.a(lib_a-nano-mallocr.o)
 .data          0x00000000        0x0 c:/program files (x86)/atollic/truestudio for stm32 9.0.0/armtools/bin/../lib/gcc/arm-atollic-eabi/6.3.1/../../../../arm-atollic-eabi/lib/armv7e-m/fpu\libc_nano.a(lib_a-nano-mallocr.o)
 .bss           0x00000000        0x0 c:/program files (x86)/atollic/truestudio for stm32 9.0.0/armtools/bin/../lib/gcc/arm-atollic-eabi/6.3.1/../../../../arm-atollic-eabi/lib/armv7e-m/fpu\libc_nano.a(lib_a-nano-mallocr.o)
 .text          0x00000000        0x0 c:/program files (x86)/atollic/truestudio for stm32 9.0.0/armtools/bin/../lib/gcc/arm-atollic-eabi/6.3.1/../../../../arm-atollic-eabi/lib/armv7e-m/fpu\libc_nano.a(lib_a-rand.o)
 .data          0x00000000        0x0 c:/program files (x86)/atollic/truestudio for stm32 9.0.0/armtools/bin/../lib/gcc/arm-atollic-eabi/6.3.1/../../../../arm-atollic-eabi/lib/armv7e-m/fpu\libc_nano.a(lib_a-rand.o)
 .bss           0x00000000        0x0 c:/program files (x86)/atollic/truestudio for stm32 9.0.0/armtools/bin/../lib/gcc/arm-atollic-eabi/6.3.1/../../../../arm-atollic-eabi/lib/armv7e-m/fpu\libc_nano.a(lib_a-rand.o)
 .text.srand    0x00000000       0x50 c:/program files (x86)/atollic/truestudio for stm32 9.0.0/armtools/bin/../lib/gcc/arm-atollic-eabi/6.3.1/../../../../arm-atollic-eabi/lib/armv7e-m/fpu\libc_nano.a(lib_a-rand.o)
 .text          0x00000000        0x0 c:/program files (x86)/atollic/truestudio for stm32 9.0.0/armtools/bin/../lib/gcc/arm-atollic-eabi/6.3.1/../../../../arm-atollic-eabi/lib/armv7e-m/fpu\libc_nano.a(lib_a-sbrkr.o)
 .data          0x00000000        0x0 c:/program files (x86)/atollic/truestudio for stm32 9.0.0/armtools/bin/../lib/gcc/arm-atollic-eabi/6.3.1/../../../../arm-atollic-eabi/lib/armv7e-m/fpu\libc_nano.a(lib_a-sbrkr.o)
 .bss           0x00000000        0x0 c:/program files (x86)/atollic/truestudio for stm32 9.0.0/armtools/bin/../lib/gcc/arm-atollic-eabi/6.3.1/../../../../arm-atollic-eabi/lib/armv7e-m/fpu\libc_nano.a(lib_a-sbrkr.o)
 .text          0x00000000        0x0 c:/program files (x86)/atollic/truestudio for stm32 9.0.0/armtools/bin/../lib/gcc/arm-atollic-eabi/6.3.1/../../../../arm-atollic-eabi/lib/armv7e-m/fpu\libc_nano.a(lib_a-strcasecmp.o)
 .data          0x00000000        0x0 c:/program files (x86)/atollic/truestudio for stm32 9.0.0/armtools/bin/../lib/gcc/arm-atollic-eabi/6.3.1/../../../../arm-atollic-eabi/lib/armv7e-m/fpu\libc_nano.a(lib_a-strcasecmp.o)
 .bss           0x00000000        0x0 c:/program files (x86)/atollic/truestudio for stm32 9.0.0/armtools/bin/../lib/gcc/arm-atollic-eabi/6.3.1/../../../../arm-atollic-eabi/lib/armv7e-m/fpu\libc_nano.a(lib_a-strcasecmp.o)
 .text          0x00000000        0x0 c:/program files (x86)/atollic/truestudio for stm32 9.0.0/armtools/bin/../lib/gcc/arm-atollic-eabi/6.3.1/../../../../arm-atollic-eabi/lib/armv7e-m/fpu\libc_nano.a(lib_a-strcpy.o)
 .data          0x00000000        0x0 c:/program files (x86)/atollic/truestudio for stm32 9.0.0/armtools/bin/../lib/gcc/arm-atollic-eabi/6.3.1/../../../../arm-atollic-eabi/lib/armv7e-m/fpu\libc_nano.a(lib_a-strcpy.o)
 .bss           0x00000000        0x0 c:/program files (x86)/atollic/truestudio for stm32 9.0.0/armtools/bin/../lib/gcc/arm-atollic-eabi/6.3.1/../../../../arm-atollic-eabi/lib/armv7e-m/fpu\libc_nano.a(lib_a-strcpy.o)
 .text.strcpy   0x00000000       0x10 c:/program files (x86)/atollic/truestudio for stm32 9.0.0/armtools/bin/../lib/gcc/arm-atollic-eabi/6.3.1/../../../../arm-atollic-eabi/lib/armv7e-m/fpu\libc_nano.a(lib_a-strcpy.o)
 .debug_frame   0x00000000       0x20 c:/program files (x86)/atollic/truestudio for stm32 9.0.0/armtools/bin/../lib/gcc/arm-atollic-eabi/6.3.1/../../../../arm-atollic-eabi/lib/armv7e-m/fpu\libc_nano.a(lib_a-strcpy.o)
 .ARM.attributes
                0x00000000       0x34 c:/program files (x86)/atollic/truestudio for stm32 9.0.0/armtools/bin/../lib/gcc/arm-atollic-eabi/6.3.1/../../../../arm-atollic-eabi/lib/armv7e-m/fpu\libc_nano.a(lib_a-strcpy.o)
 .data          0x00000000        0x0 c:/program files (x86)/atollic/truestudio for stm32 9.0.0/armtools/bin/../lib/gcc/arm-atollic-eabi/6.3.1/../../../../arm-atollic-eabi/lib/armv7e-m/fpu\libc_nano.a(lib_a-strlen.o)
 .bss           0x00000000        0x0 c:/program files (x86)/atollic/truestudio for stm32 9.0.0/armtools/bin/../lib/gcc/arm-atollic-eabi/6.3.1/../../../../arm-atollic-eabi/lib/armv7e-m/fpu\libc_nano.a(lib_a-strlen.o)
 .text          0x00000000        0x0 c:/program files (x86)/atollic/truestudio for stm32 9.0.0/armtools/bin/../lib/gcc/arm-atollic-eabi/6.3.1/../../../../arm-atollic-eabi/lib/armv7e-m/fpu\libc_nano.a(lib_a-strncmp.o)
 .data          0x00000000        0x0 c:/program files (x86)/atollic/truestudio for stm32 9.0.0/armtools/bin/../lib/gcc/arm-atollic-eabi/6.3.1/../../../../arm-atollic-eabi/lib/armv7e-m/fpu\libc_nano.a(lib_a-strncmp.o)
 .bss           0x00000000        0x0 c:/program files (x86)/atollic/truestudio for stm32 9.0.0/armtools/bin/../lib/gcc/arm-atollic-eabi/6.3.1/../../../../arm-atollic-eabi/lib/armv7e-m/fpu\libc_nano.a(lib_a-strncmp.o)
 .text          0x00000000        0x0 c:/program files (x86)/atollic/truestudio for stm32 9.0.0/armtools/bin/../lib/gcc/arm-atollic-eabi/6.3.1/../../../../arm-atollic-eabi/lib/armv7e-m/fpu\libc_nano.a(lib_a-strncpy.o)
 .data          0x00000000        0x0 c:/program files (x86)/atollic/truestudio for stm32 9.0.0/armtools/bin/../lib/gcc/arm-atollic-eabi/6.3.1/../../../../arm-atollic-eabi/lib/armv7e-m/fpu\libc_nano.a(lib_a-strncpy.o)
 .bss           0x00000000        0x0 c:/program files (x86)/atollic/truestudio for stm32 9.0.0/armtools/bin/../lib/gcc/arm-atollic-eabi/6.3.1/../../../../arm-atollic-eabi/lib/armv7e-m/fpu\libc_nano.a(lib_a-strncpy.o)
 .text          0x00000000        0x0 c:/program files (x86)/atollic/truestudio for stm32 9.0.0/armtools/bin/../lib/gcc/arm-atollic-eabi/6.3.1/../../../../arm-atollic-eabi/lib/armv7e-m/fpu\libc_nano.a(lib_a-impure.o)
 .data          0x00000000        0x0 c:/program files (x86)/atollic/truestudio for stm32 9.0.0/armtools/bin/../lib/gcc/arm-atollic-eabi/6.3.1/../../../../arm-atollic-eabi/lib/armv7e-m/fpu\libc_nano.a(lib_a-impure.o)
 .bss           0x00000000        0x0 c:/program files (x86)/atollic/truestudio for stm32 9.0.0/armtools/bin/../lib/gcc/arm-atollic-eabi/6.3.1/../../../../arm-atollic-eabi/lib/armv7e-m/fpu\libc_nano.a(lib_a-impure.o)
 .rodata._global_impure_ptr
                0x00000000        0x4 c:/program files (x86)/atollic/truestudio for stm32 9.0.0/armtools/bin/../lib/gcc/arm-atollic-eabi/6.3.1/../../../../arm-atollic-eabi/lib/armv7e-m/fpu\libc_nano.a(lib_a-impure.o)
 .text          0x00000000        0x0 c:/program files (x86)/atollic/truestudio for stm32 9.0.0/armtools/bin/../lib/gcc/arm-atollic-eabi/6.3.1/../../../../arm-atollic-eabi/lib/armv7e-m/fpu\libc_nano.a(lib_a-locale.o)
 .data          0x00000000        0x0 c:/program files (x86)/atollic/truestudio for stm32 9.0.0/armtools/bin/../lib/gcc/arm-atollic-eabi/6.3.1/../../../../arm-atollic-eabi/lib/armv7e-m/fpu\libc_nano.a(lib_a-locale.o)
 .bss           0x00000000        0x0 c:/program files (x86)/atollic/truestudio for stm32 9.0.0/armtools/bin/../lib/gcc/arm-atollic-eabi/6.3.1/../../../../arm-atollic-eabi/lib/armv7e-m/fpu\libc_nano.a(lib_a-locale.o)
 .text._setlocale_r
                0x00000000       0x38 c:/program files (x86)/atollic/truestudio for stm32 9.0.0/armtools/bin/../lib/gcc/arm-atollic-eabi/6.3.1/../../../../arm-atollic-eabi/lib/armv7e-m/fpu\libc_nano.a(lib_a-locale.o)
 .text.__locale_mb_cur_max
                0x00000000       0x1c c:/program files (x86)/atollic/truestudio for stm32 9.0.0/armtools/bin/../lib/gcc/arm-atollic-eabi/6.3.1/../../../../arm-atollic-eabi/lib/armv7e-m/fpu\libc_nano.a(lib_a-locale.o)
 .text.__locale_ctype_ptr_l
                0x00000000        0x6 c:/program files (x86)/atollic/truestudio for stm32 9.0.0/armtools/bin/../lib/gcc/arm-atollic-eabi/6.3.1/../../../../arm-atollic-eabi/lib/armv7e-m/fpu\libc_nano.a(lib_a-locale.o)
 .text.setlocale
                0x00000000       0x10 c:/program files (x86)/atollic/truestudio for stm32 9.0.0/armtools/bin/../lib/gcc/arm-atollic-eabi/6.3.1/../../../../arm-atollic-eabi/lib/armv7e-m/fpu\libc_nano.a(lib_a-locale.o)
 .bss._PathLocale
                0x00000000        0x4 c:/program files (x86)/atollic/truestudio for stm32 9.0.0/armtools/bin/../lib/gcc/arm-atollic-eabi/6.3.1/../../../../arm-atollic-eabi/lib/armv7e-m/fpu\libc_nano.a(lib_a-locale.o)
 .text          0x00000000        0x0 c:/program files (x86)/atollic/truestudio for stm32 9.0.0/armtools/bin/../lib/gcc/arm-atollic-eabi/6.3.1/../../../../arm-atollic-eabi/lib/armv7e-m/fpu\libc_nano.a(lib_a-mbtowc_r.o)
 .data          0x00000000        0x0 c:/program files (x86)/atollic/truestudio for stm32 9.0.0/armtools/bin/../lib/gcc/arm-atollic-eabi/6.3.1/../../../../arm-atollic-eabi/lib/armv7e-m/fpu\libc_nano.a(lib_a-mbtowc_r.o)
 .bss           0x00000000        0x0 c:/program files (x86)/atollic/truestudio for stm32 9.0.0/armtools/bin/../lib/gcc/arm-atollic-eabi/6.3.1/../../../../arm-atollic-eabi/lib/armv7e-m/fpu\libc_nano.a(lib_a-mbtowc_r.o)
 .text._mbtowc_r
                0x00000000       0x24 c:/program files (x86)/atollic/truestudio for stm32 9.0.0/armtools/bin/../lib/gcc/arm-atollic-eabi/6.3.1/../../../../arm-atollic-eabi/lib/armv7e-m/fpu\libc_nano.a(lib_a-mbtowc_r.o)
 .text          0x00000000        0x0 c:/program files (x86)/atollic/truestudio for stm32 9.0.0/armtools/bin/../lib/gcc/arm-atollic-eabi/6.3.1/../../../../arm-atollic-eabi/lib/armv7e-m/fpu\libc_nano.a(lib_a-mlock.o)
 .data          0x00000000        0x0 c:/program files (x86)/atollic/truestudio for stm32 9.0.0/armtools/bin/../lib/gcc/arm-atollic-eabi/6.3.1/../../../../arm-atollic-eabi/lib/armv7e-m/fpu\libc_nano.a(lib_a-mlock.o)
 .bss           0x00000000        0x0 c:/program files (x86)/atollic/truestudio for stm32 9.0.0/armtools/bin/../lib/gcc/arm-atollic-eabi/6.3.1/../../../../arm-atollic-eabi/lib/armv7e-m/fpu\libc_nano.a(lib_a-mlock.o)
 .text          0x00000000        0x0 c:/program files (x86)/atollic/truestudio for stm32 9.0.0/armtools/bin/../lib/gcc/arm-atollic-eabi/6.3.1/../../../../arm-atollic-eabi/lib/armv7e-m/fpu\libc_nano.a(lib_a-reent.o)
 .data          0x00000000        0x0 c:/program files (x86)/atollic/truestudio for stm32 9.0.0/armtools/bin/../lib/gcc/arm-atollic-eabi/6.3.1/../../../../arm-atollic-eabi/lib/armv7e-m/fpu\libc_nano.a(lib_a-reent.o)
 .bss           0x00000000        0x0 c:/program files (x86)/atollic/truestudio for stm32 9.0.0/armtools/bin/../lib/gcc/arm-atollic-eabi/6.3.1/../../../../arm-atollic-eabi/lib/armv7e-m/fpu\libc_nano.a(lib_a-reent.o)
 .text.cleanup_glue
                0x00000000       0x1a c:/program files (x86)/atollic/truestudio for stm32 9.0.0/armtools/bin/../lib/gcc/arm-atollic-eabi/6.3.1/../../../../arm-atollic-eabi/lib/armv7e-m/fpu\libc_nano.a(lib_a-reent.o)
 .text._reclaim_reent
                0x00000000       0xb8 c:/program files (x86)/atollic/truestudio for stm32 9.0.0/armtools/bin/../lib/gcc/arm-atollic-eabi/6.3.1/../../../../arm-atollic-eabi/lib/armv7e-m/fpu\libc_nano.a(lib_a-reent.o)
 .text          0x00000000       0x14 c:/program files (x86)/atollic/truestudio for stm32 9.0.0/armtools/bin/../lib/gcc/arm-atollic-eabi/6.3.1/../../../../arm-atollic-eabi/lib/armv7e-m/fpu\libc_nano.a(lib_a-strcmp.o)
 .data          0x00000000        0x0 c:/program files (x86)/atollic/truestudio for stm32 9.0.0/armtools/bin/../lib/gcc/arm-atollic-eabi/6.3.1/../../../../arm-atollic-eabi/lib/armv7e-m/fpu\libc_nano.a(lib_a-strcmp.o)
 .bss           0x00000000        0x0 c:/program files (x86)/atollic/truestudio for stm32 9.0.0/armtools/bin/../lib/gcc/arm-atollic-eabi/6.3.1/../../../../arm-atollic-eabi/lib/armv7e-m/fpu\libc_nano.a(lib_a-strcmp.o)
 .debug_frame   0x00000000       0x20 c:/program files (x86)/atollic/truestudio for stm32 9.0.0/armtools/bin/../lib/gcc/arm-atollic-eabi/6.3.1/../../../../arm-atollic-eabi/lib/armv7e-m/fpu\libc_nano.a(lib_a-strcmp.o)
 .ARM.attributes
                0x00000000       0x20 c:/program files (x86)/atollic/truestudio for stm32 9.0.0/armtools/bin/../lib/gcc/arm-atollic-eabi/6.3.1/../../../../arm-atollic-eabi/lib/armv7e-m/fpu\libc_nano.a(lib_a-strcmp.o)
 .text          0x00000000        0x0 c:/program files (x86)/atollic/truestudio for stm32 9.0.0/armtools/bin/../lib/gcc/arm-atollic-eabi/6.3.1/../../../../arm-atollic-eabi/lib/armv7e-m/fpu\libc_nano.a(lib_a-wctomb_r.o)
 .data          0x00000000        0x0 c:/program files (x86)/atollic/truestudio for stm32 9.0.0/armtools/bin/../lib/gcc/arm-atollic-eabi/6.3.1/../../../../arm-atollic-eabi/lib/armv7e-m/fpu\libc_nano.a(lib_a-wctomb_r.o)
 .bss           0x00000000        0x0 c:/program files (x86)/atollic/truestudio for stm32 9.0.0/armtools/bin/../lib/gcc/arm-atollic-eabi/6.3.1/../../../../arm-atollic-eabi/lib/armv7e-m/fpu\libc_nano.a(lib_a-wctomb_r.o)
 .text._wctomb_r
                0x00000000       0x24 c:/program files (x86)/atollic/truestudio for stm32 9.0.0/armtools/bin/../lib/gcc/arm-atollic-eabi/6.3.1/../../../../arm-atollic-eabi/lib/armv7e-m/fpu\libc_nano.a(lib_a-wctomb_r.o)
 .text          0x00000000        0x0 c:/program files (x86)/atollic/truestudio for stm32 9.0.0/armtools/bin/../lib/gcc/arm-atollic-eabi/6.3.1/../../../../arm-atollic-eabi/lib/armv7e-m/fpu\libc_nano.a(lib_a-ctype_.o)
 .data          0x00000000        0x0 c:/program files (x86)/atollic/truestudio for stm32 9.0.0/armtools/bin/../lib/gcc/arm-atollic-eabi/6.3.1/../../../../arm-atollic-eabi/lib/armv7e-m/fpu\libc_nano.a(lib_a-ctype_.o)
 .bss           0x00000000        0x0 c:/program files (x86)/atollic/truestudio for stm32 9.0.0/armtools/bin/../lib/gcc/arm-atollic-eabi/6.3.1/../../../../arm-atollic-eabi/lib/armv7e-m/fpu\libc_nano.a(lib_a-ctype_.o)
 .data          0x00000000        0x0 c:/program files (x86)/atollic/truestudio for stm32 9.0.0/armtools/bin/../lib/gcc/arm-atollic-eabi/6.3.1/armv7e-m/fpu\libgcc.a(_aeabi_uldivmod.o)
 .bss           0x00000000        0x0 c:/program files (x86)/atollic/truestudio for stm32 9.0.0/armtools/bin/../lib/gcc/arm-atollic-eabi/6.3.1/armv7e-m/fpu\libgcc.a(_aeabi_uldivmod.o)
 .data          0x00000000        0x0 c:/program files (x86)/atollic/truestudio for stm32 9.0.0/armtools/bin/../lib/gcc/arm-atollic-eabi/6.3.1/armv7e-m/fpu\libgcc.a(_udivmoddi4.o)
 .bss           0x00000000        0x0 c:/program files (x86)/atollic/truestudio for stm32 9.0.0/armtools/bin/../lib/gcc/arm-atollic-eabi/6.3.1/armv7e-m/fpu\libgcc.a(_udivmoddi4.o)
 .ARM.extab     0x00000000        0x0 c:/program files (x86)/atollic/truestudio for stm32 9.0.0/armtools/bin/../lib/gcc/arm-atollic-eabi/6.3.1/armv7e-m/fpu\libgcc.a(_udivmoddi4.o)
 .data          0x00000000        0x0 c:/program files (x86)/atollic/truestudio for stm32 9.0.0/armtools/bin/../lib/gcc/arm-atollic-eabi/6.3.1/armv7e-m/fpu\libgcc.a(_dvmd_tls.o)
 .bss           0x00000000        0x0 c:/program files (x86)/atollic/truestudio for stm32 9.0.0/armtools/bin/../lib/gcc/arm-atollic-eabi/6.3.1/armv7e-m/fpu\libgcc.a(_dvmd_tls.o)
 .text          0x00000000        0x0 c:/program files (x86)/atollic/truestudio for stm32 9.0.0/armtools/bin/../lib/gcc/arm-atollic-eabi/6.3.1/../../../../arm-atollic-eabi/lib/armv7e-m/fpu\libnosys.a(sbrk.o)
 .data          0x00000000        0x0 c:/program files (x86)/atollic/truestudio for stm32 9.0.0/armtools/bin/../lib/gcc/arm-atollic-eabi/6.3.1/../../../../arm-atollic-eabi/lib/armv7e-m/fpu\libnosys.a(sbrk.o)
 .bss           0x00000000        0x0 c:/program files (x86)/atollic/truestudio for stm32 9.0.0/armtools/bin/../lib/gcc/arm-atollic-eabi/6.3.1/../../../../arm-atollic-eabi/lib/armv7e-m/fpu\libnosys.a(sbrk.o)
 .text          0x00000000        0x0 c:/program files (x86)/atollic/truestudio for stm32 9.0.0/armtools/bin/../lib/gcc/arm-atollic-eabi/6.3.1/armv7e-m/fpu/crtend.o
 .data          0x00000000        0x0 c:/program files (x86)/atollic/truestudio for stm32 9.0.0/armtools/bin/../lib/gcc/arm-atollic-eabi/6.3.1/armv7e-m/fpu/crtend.o
 .bss           0x00000000        0x0 c:/program files (x86)/atollic/truestudio for stm32 9.0.0/armtools/bin/../lib/gcc/arm-atollic-eabi/6.3.1/armv7e-m/fpu/crtend.o
 .eh_frame      0x00000000        0x4 c:/program files (x86)/atollic/truestudio for stm32 9.0.0/armtools/bin/../lib/gcc/arm-atollic-eabi/6.3.1/armv7e-m/fpu/crtend.o
 .ARM.attributes
                0x00000000       0x34 c:/program files (x86)/atollic/truestudio for stm32 9.0.0/armtools/bin/../lib/gcc/arm-atollic-eabi/6.3.1/armv7e-m/fpu/crtend.o
 .text          0x00000000        0x0 c:/program files (x86)/atollic/truestudio for stm32 9.0.0/armtools/bin/../lib/gcc/arm-atollic-eabi/6.3.1/armv7e-m/fpu/crtn.o
 .data          0x00000000        0x0 c:/program files (x86)/atollic/truestudio for stm32 9.0.0/armtools/bin/../lib/gcc/arm-atollic-eabi/6.3.1/armv7e-m/fpu/crtn.o
 .bss           0x00000000        0x0 c:/program files (x86)/atollic/truestudio for stm32 9.0.0/armtools/bin/../lib/gcc/arm-atollic-eabi/6.3.1/armv7e-m/fpu/crtn.o

Memory Configuration

Name             Origin             Length             Attributes
RAM              0x20000000         0x00020000         xrw
FLASH            0x08000000         0x00080000         xr
*default*        0x00000000         0xffffffff

Linker script and memory map

LOAD c:/program files (x86)/atollic/truestudio for stm32 9.0.0/armtools/bin/../lib/gcc/arm-atollic-eabi/6.3.1/armv7e-m/fpu/crti.o
LOAD c:/program files (x86)/atollic/truestudio for stm32 9.0.0/armtools/bin/../lib/gcc/arm-atollic-eabi/6.3.1/armv7e-m/fpu/crtbegin.o
LOAD Drivers\STM32F4xx_HAL_Driver\Src\stm32f4xx_hal.o
LOAD Drivers\STM32F4xx_HAL_Driver\Src\stm32f4xx_hal_cortex.o
LOAD Drivers\STM32F4xx_HAL_Driver\Src\stm32f4xx_hal_dma.o
LOAD Drivers\STM32F4xx_HAL_Driver\Src\stm32f4xx_hal_dma_ex.o
LOAD Drivers\STM32F4xx_HAL_Driver\Src\stm32f4xx_hal_flash.o
LOAD Drivers\STM32F4xx_HAL_Driver\Src\stm32f4xx_hal_flash_ex.o
LOAD Drivers\STM32F4xx_HAL_Driver\Src\stm32f4xx_hal_flash_ramfunc.o
LOAD Drivers\STM32F4xx_HAL_Driver\Src\stm32f4xx_hal_gpio.o
LOAD Drivers\STM32F4xx_HAL_Driver\Src\stm32f4xx_hal_pcd.o
LOAD Drivers\STM32F4xx_HAL_Driver\Src\stm32f4xx_hal_pcd_ex.o
LOAD Drivers\STM32F4xx_HAL_Driver\Src\stm32f4xx_hal_pwr.o
LOAD Drivers\STM32F4xx_HAL_Driver\Src\stm32f4xx_hal_pwr_ex.o
LOAD Drivers\STM32F4xx_HAL_Driver\Src\stm32f4xx_hal_rcc.o
LOAD Drivers\STM32F4xx_HAL_Driver\Src\stm32f4xx_hal_rcc_ex.o
LOAD Drivers\STM32F4xx_HAL_Driver\Src\stm32f4xx_hal_tim.o
LOAD Drivers\STM32F4xx_HAL_Driver\Src\stm32f4xx_hal_tim_ex.o
LOAD Drivers\STM32F4xx_HAL_Driver\Src\stm32f4xx_ll_usb.o
LOAD Middlewares\ST\STM32_USB_Device_Library\App\Src\usb_device.o
LOAD Middlewares\ST\STM32_USB_Device_Library\App\Src\usbd_conf.o
LOAD Middlewares\ST\STM32_USB_Device_Library\App\Src\usbd_desc.o
LOAD Middlewares\ST\STM32_USB_Device_Library\App\Src\usbd_rndis_if.o
LOAD Middlewares\ST\STM32_USB_Device_Library\Class\CDC\Src\usbd_cdc.o
LOAD Middlewares\ST\STM32_USB_Device_Library\Class\Composite\Src\usbd_composite.o
LOAD Middlewares\ST\STM32_USB_Device_Library\Class\RNDIS\Src\usbd_rndis.o
LOAD Middlewares\ST\STM32_USB_Device_Library\Core\Src\usbd_core.o
LOAD Middlewares\ST\STM32_USB_Device_Library\Core\Src\usbd_ctlreq.o
LOAD Middlewares\ST\STM32_USB_Device_Library\Core\Src\usbd_ioreq.o
LOAD Middlewares\Third_Party\FreeRTOS\Source\CMSIS_RTOS\cmsis_os.o
LOAD Middlewares\Third_Party\FreeRTOS\Source\croutine.o
LOAD Middlewares\Third_Party\FreeRTOS\Source\event_groups.o
LOAD Middlewares\Third_Party\FreeRTOS\Source\list.o
LOAD Middlewares\Third_Party\FreeRTOS\Source\portable\GCC\ARM_CM4F\port.o
LOAD Middlewares\Third_Party\FreeRTOS\Source\portable\MemMang\heap_4.o
LOAD Middlewares\Third_Party\FreeRTOS\Source\queue.o
LOAD Middlewares\Third_Party\FreeRTOS\Source\tasks.o
LOAD Middlewares\Third_Party\FreeRTOS\Source\timers.o
LOAD Middlewares\Third_Party\FreeRTOS-Plus\FreeRTOS-Plus-TCP\FreeRTOS_ARP.o
LOAD Middlewares\Third_Party\FreeRTOS-Plus\FreeRTOS-Plus-TCP\FreeRTOS_DHCP.o
LOAD Middlewares\Third_Party\FreeRTOS-Plus\FreeRTOS-Plus-TCP\FreeRTOS_DNS.o
LOAD Middlewares\Third_Party\FreeRTOS-Plus\FreeRTOS-Plus-TCP\FreeRTOS_IP.o
LOAD Middlewares\Third_Party\FreeRTOS-Plus\FreeRTOS-Plus-TCP\FreeRTOS_Sockets.o
LOAD Middlewares\Third_Party\FreeRTOS-Plus\FreeRTOS-Plus-TCP\FreeRTOS_Stream_Buffer.o
LOAD Middlewares\Third_Party\FreeRTOS-Plus\FreeRTOS-Plus-TCP\FreeRTOS_TCP_IP.o
LOAD Middlewares\Third_Party\FreeRTOS-Plus\FreeRTOS-Plus-TCP\FreeRTOS_TCP_WIN.o
LOAD Middlewares\Third_Party\FreeRTOS-Plus\FreeRTOS-Plus-TCP\FreeRTOS_UDP_IP.o
LOAD Middlewares\Third_Party\FreeRTOS-Plus\FreeRTOS-Plus-TCP\portable\BufferManagement\BufferAllocation_2.o
LOAD Src\freertos.o
LOAD Src\main.o
LOAD Src\stm32f4xx_hal_msp.o
LOAD Src\stm32f4xx_hal_timebase_TIM.o
LOAD Src\stm32f4xx_it.o
LOAD Src\system_stm32f4xx.o
LOAD startup\startup_stm32f411xe.o
                0x00000080                malloc_getpagesize_P = 0x80
START GROUP
LOAD c:/program files (x86)/atollic/truestudio for stm32 9.0.0/armtools/bin/../lib/gcc/arm-atollic-eabi/6.3.1/../../../../arm-atollic-eabi/lib/armv7e-m/fpu\libc_nano.a
LOAD c:/program files (x86)/atollic/truestudio for stm32 9.0.0/armtools/bin/../lib/gcc/arm-atollic-eabi/6.3.1/../../../../arm-atollic-eabi/lib/armv7e-m/fpu\libm.a
END GROUP
START GROUP
LOAD c:/program files (x86)/atollic/truestudio for stm32 9.0.0/armtools/bin/../lib/gcc/arm-atollic-eabi/6.3.1/armv7e-m/fpu\libgcc.a
LOAD c:/program files (x86)/atollic/truestudio for stm32 9.0.0/armtools/bin/../lib/gcc/arm-atollic-eabi/6.3.1/../../../../arm-atollic-eabi/lib/armv7e-m/fpu\libc_nano.a
END GROUP
START GROUP
LOAD c:/program files (x86)/atollic/truestudio for stm32 9.0.0/armtools/bin/../lib/gcc/arm-atollic-eabi/6.3.1/armv7e-m/fpu\libgcc.a
LOAD c:/program files (x86)/atollic/truestudio for stm32 9.0.0/armtools/bin/../lib/gcc/arm-atollic-eabi/6.3.1/../../../../arm-atollic-eabi/lib/armv7e-m/fpu\libc_nano.a
LOAD c:/program files (x86)/atollic/truestudio for stm32 9.0.0/armtools/bin/../lib/gcc/arm-atollic-eabi/6.3.1/../../../../arm-atollic-eabi/lib/armv7e-m/fpu\libnosys.a
END GROUP
START GROUP
LOAD c:/program files (x86)/atollic/truestudio for stm32 9.0.0/armtools/bin/../lib/gcc/arm-atollic-eabi/6.3.1/armv7e-m/fpu\libgcc.a
LOAD c:/program files (x86)/atollic/truestudio for stm32 9.0.0/armtools/bin/../lib/gcc/arm-atollic-eabi/6.3.1/../../../../arm-atollic-eabi/lib/armv7e-m/fpu\libc_nano.a
LOAD c:/program files (x86)/atollic/truestudio for stm32 9.0.0/armtools/bin/../lib/gcc/arm-atollic-eabi/6.3.1/../../../../arm-atollic-eabi/lib/armv7e-m/fpu\libnosys.a
END GROUP
LOAD c:/program files (x86)/atollic/truestudio for stm32 9.0.0/armtools/bin/../lib/gcc/arm-atollic-eabi/6.3.1/armv7e-m/fpu/crtend.o
LOAD c:/program files (x86)/atollic/truestudio for stm32 9.0.0/armtools/bin/../lib/gcc/arm-atollic-eabi/6.3.1/armv7e-m/fpu/crtn.o
                0x20020000                _estack = 0x20020000
                0x00000200                _Min_Heap_Size = 0x200
                0x00000400                _Min_Stack_Size = 0x400

.isr_vector     0x08000000      0x198
                0x08000000                . = ALIGN (0x4)
 *(.isr_vector)
 .isr_vector    0x08000000      0x198 startup\startup_stm32f411xe.o
                0x08000000                g_pfnVectors
                0x08000198                . = ALIGN (0x4)

.text           0x080001a0     0x9438
                0x080001a0                . = ALIGN (0x4)
 *(.text)
 .text          0x080001a0       0x40 c:/program files (x86)/atollic/truestudio for stm32 9.0.0/armtools/bin/../lib/gcc/arm-atollic-eabi/6.3.1/armv7e-m/fpu/crtbegin.o
 .text          0x080001e0       0x10 c:/program files (x86)/atollic/truestudio for stm32 9.0.0/armtools/bin/../lib/gcc/arm-atollic-eabi/6.3.1/../../../../arm-atollic-eabi/lib/armv7e-m/fpu\libc_nano.a(lib_a-strlen.o)
                0x080001e0                strlen
 .text          0x080001f0       0x30 c:/program files (x86)/atollic/truestudio for stm32 9.0.0/armtools/bin/../lib/gcc/arm-atollic-eabi/6.3.1/armv7e-m/fpu\libgcc.a(_aeabi_uldivmod.o)
                0x080001f0                __aeabi_uldivmod
 .text          0x08000220      0x2dc c:/program files (x86)/atollic/truestudio for stm32 9.0.0/armtools/bin/../lib/gcc/arm-atollic-eabi/6.3.1/armv7e-m/fpu\libgcc.a(_udivmoddi4.o)
                0x08000220                __udivmoddi4
 .text          0x080004fc        0x4 c:/program files (x86)/atollic/truestudio for stm32 9.0.0/armtools/bin/../lib/gcc/arm-atollic-eabi/6.3.1/armv7e-m/fpu\libgcc.a(_dvmd_tls.o)
                0x080004fc                __aeabi_idiv0
                0x080004fc                __aeabi_ldiv0
 *(.text*)
 .text.HAL_Init
                0x08000500       0x34 Drivers\STM32F4xx_HAL_Driver\Src\stm32f4xx_hal.o
                0x08000500                HAL_Init
 .text.HAL_IncTick
                0x08000534       0x18 Drivers\STM32F4xx_HAL_Driver\Src\stm32f4xx_hal.o
                0x08000534                HAL_IncTick
 .text.HAL_GetTick
                0x0800054c        0xc Drivers\STM32F4xx_HAL_Driver\Src\stm32f4xx_hal.o
                0x0800054c                HAL_GetTick
 .text.HAL_Delay
                0x08000558       0x28 Drivers\STM32F4xx_HAL_Driver\Src\stm32f4xx_hal.o
                0x08000558                HAL_Delay
 .text.HAL_NVIC_SetPriorityGrouping
                0x08000580       0x24 Drivers\STM32F4xx_HAL_Driver\Src\stm32f4xx_hal_cortex.o
                0x08000580                HAL_NVIC_SetPriorityGrouping
 .text.HAL_NVIC_SetPriority
                0x080005a4       0x68 Drivers\STM32F4xx_HAL_Driver\Src\stm32f4xx_hal_cortex.o
                0x080005a4                HAL_NVIC_SetPriority
 .text.HAL_NVIC_EnableIRQ
                0x0800060c       0x18 Drivers\STM32F4xx_HAL_Driver\Src\stm32f4xx_hal_cortex.o
                0x0800060c                HAL_NVIC_EnableIRQ
 .text.HAL_SYSTICK_Config
                0x08000624       0x2c Drivers\STM32F4xx_HAL_Driver\Src\stm32f4xx_hal_cortex.o
                0x08000624                HAL_SYSTICK_Config
 .text.HAL_SYSTICK_CLKSourceConfig
                0x08000650       0x18 Drivers\STM32F4xx_HAL_Driver\Src\stm32f4xx_hal_cortex.o
                0x08000650                HAL_SYSTICK_CLKSourceConfig
 .text.HAL_GPIO_Init
                0x08000668      0x1ac Drivers\STM32F4xx_HAL_Driver\Src\stm32f4xx_hal_gpio.o
                0x08000668                HAL_GPIO_Init
 .text.HAL_GPIO_WritePin
                0x08000814        0xa Drivers\STM32F4xx_HAL_Driver\Src\stm32f4xx_hal_gpio.o
                0x08000814                HAL_GPIO_WritePin
 .text.HAL_GPIO_TogglePin
                0x0800081e        0x8 Drivers\STM32F4xx_HAL_Driver\Src\stm32f4xx_hal_gpio.o
                0x0800081e                HAL_GPIO_TogglePin
 .text.HAL_PCD_Init
                0x08000826       0xd8 Drivers\STM32F4xx_HAL_Driver\Src\stm32f4xx_hal_pcd.o
                0x08000826                HAL_PCD_Init
 .text.HAL_PCD_Start
                0x080008fe       0x2a Drivers\STM32F4xx_HAL_Driver\Src\stm32f4xx_hal_pcd.o
                0x080008fe                HAL_PCD_Start
 .text.HAL_PCD_IRQHandler
                0x08000928      0x558 Drivers\STM32F4xx_HAL_Driver\Src\stm32f4xx_hal_pcd.o
                0x08000928                HAL_PCD_IRQHandler
 .text.HAL_PCD_SetAddress
                0x08000e80       0x24 Drivers\STM32F4xx_HAL_Driver\Src\stm32f4xx_hal_pcd.o
                0x08000e80                HAL_PCD_SetAddress
 .text.HAL_PCD_EP_Open
                0x08000ea4       0x5c Drivers\STM32F4xx_HAL_Driver\Src\stm32f4xx_hal_pcd.o
                0x08000ea4                HAL_PCD_EP_Open
 .text.HAL_PCD_EP_Close
                0x08000f00       0x46 Drivers\STM32F4xx_HAL_Driver\Src\stm32f4xx_hal_pcd.o
                0x08000f00                HAL_PCD_EP_Close
 .text.HAL_PCD_EP_Receive
                0x08000f46       0x48 Drivers\STM32F4xx_HAL_Driver\Src\stm32f4xx_hal_pcd.o
                0x08000f46                HAL_PCD_EP_Receive
 .text.HAL_PCD_EP_GetRxCount
                0x08000f8e       0x10 Drivers\STM32F4xx_HAL_Driver\Src\stm32f4xx_hal_pcd.o
                0x08000f8e                HAL_PCD_EP_GetRxCount
 .text.HAL_PCD_EP_Transmit
                0x08000f9e       0x40 Drivers\STM32F4xx_HAL_Driver\Src\stm32f4xx_hal_pcd.o
                0x08000f9e                HAL_PCD_EP_Transmit
 .text.HAL_PCD_EP_SetStall
                0x08000fde       0x58 Drivers\STM32F4xx_HAL_Driver\Src\stm32f4xx_hal_pcd.o
                0x08000fde                HAL_PCD_EP_SetStall
 .text.HAL_PCD_EP_ClrStall
                0x08001036       0x4a Drivers\STM32F4xx_HAL_Driver\Src\stm32f4xx_hal_pcd.o
                0x08001036                HAL_PCD_EP_ClrStall
 .text.HAL_PCDEx_SetTxFiFo
                0x08001080       0x42 Drivers\STM32F4xx_HAL_Driver\Src\stm32f4xx_hal_pcd_ex.o
                0x08001080                HAL_PCDEx_SetTxFiFo
 .text.HAL_PCDEx_SetRxFiFo
                0x080010c2        0x8 Drivers\STM32F4xx_HAL_Driver\Src\stm32f4xx_hal_pcd_ex.o
                0x080010c2                HAL_PCDEx_SetRxFiFo
 *fill*         0x080010ca        0x2 
 .text.HAL_RCC_OscConfig
                0x080010cc      0x304 Drivers\STM32F4xx_HAL_Driver\Src\stm32f4xx_hal_rcc.o
                0x080010cc                HAL_RCC_OscConfig
 .text.HAL_RCC_GetSysClockFreq
                0x080013d0       0x5c Drivers\STM32F4xx_HAL_Driver\Src\stm32f4xx_hal_rcc.o
                0x080013d0                HAL_RCC_GetSysClockFreq
 .text.HAL_RCC_ClockConfig
                0x0800142c      0x134 Drivers\STM32F4xx_HAL_Driver\Src\stm32f4xx_hal_rcc.o
                0x0800142c                HAL_RCC_ClockConfig
 .text.HAL_RCC_GetHCLKFreq
                0x08001560        0xc Drivers\STM32F4xx_HAL_Driver\Src\stm32f4xx_hal_rcc.o
                0x08001560                HAL_RCC_GetHCLKFreq
 .text.HAL_RCC_GetPCLK2Freq
                0x0800156c       0x20 Drivers\STM32F4xx_HAL_Driver\Src\stm32f4xx_hal_rcc.o
                0x0800156c                HAL_RCC_GetPCLK2Freq
 .text.HAL_RCC_GetClockConfig
                0x0800158c       0x3c Drivers\STM32F4xx_HAL_Driver\Src\stm32f4xx_hal_rcc.o
                0x0800158c                HAL_RCC_GetClockConfig
 .text.HAL_TIM_Base_MspInit
                0x080015c8        0x2 Drivers\STM32F4xx_HAL_Driver\Src\stm32f4xx_hal_tim.o
                0x080015c8                HAL_TIM_Base_MspInit
 .text.HAL_TIM_Base_Start_IT
                0x080015ca       0x16 Drivers\STM32F4xx_HAL_Driver\Src\stm32f4xx_hal_tim.o
                0x080015ca                HAL_TIM_Base_Start_IT
 .text.HAL_TIM_OC_DelayElapsedCallback
                0x080015e0        0x2 Drivers\STM32F4xx_HAL_Driver\Src\stm32f4xx_hal_tim.o
                0x080015e0                HAL_TIM_OC_DelayElapsedCallback
 .text.HAL_TIM_IC_CaptureCallback
                0x080015e2        0x2 Drivers\STM32F4xx_HAL_Driver\Src\stm32f4xx_hal_tim.o
                0x080015e2                HAL_TIM_IC_CaptureCallback
 .text.HAL_TIM_PWM_PulseFinishedCallback
                0x080015e4        0x2 Drivers\STM32F4xx_HAL_Driver\Src\stm32f4xx_hal_tim.o
                0x080015e4                HAL_TIM_PWM_PulseFinishedCallback
 .text.HAL_TIM_TriggerCallback
                0x080015e6        0x2 Drivers\STM32F4xx_HAL_Driver\Src\stm32f4xx_hal_tim.o
                0x080015e6                HAL_TIM_TriggerCallback
 .text.HAL_TIM_IRQHandler
                0x080015e8      0x144 Drivers\STM32F4xx_HAL_Driver\Src\stm32f4xx_hal_tim.o
                0x080015e8                HAL_TIM_IRQHandler
 .text.TIM_Base_SetConfig
                0x0800172c       0x98 Drivers\STM32F4xx_HAL_Driver\Src\stm32f4xx_hal_tim.o
                0x0800172c                TIM_Base_SetConfig
 .text.HAL_TIM_Base_Init
                0x080017c4       0x34 Drivers\STM32F4xx_HAL_Driver\Src\stm32f4xx_hal_tim.o
                0x080017c4                HAL_TIM_Base_Init
 .text.HAL_TIMEx_CommutationCallback
                0x080017f8        0x2 Drivers\STM32F4xx_HAL_Driver\Src\stm32f4xx_hal_tim_ex.o
                0x080017f8                HAL_TIMEx_CommutationCallback
 .text.HAL_TIMEx_BreakCallback
                0x080017fa        0x2 Drivers\STM32F4xx_HAL_Driver\Src\stm32f4xx_hal_tim_ex.o
                0x080017fa                HAL_TIMEx_BreakCallback
 .text.USB_CoreInit
                0x080017fc       0x74 Drivers\STM32F4xx_HAL_Driver\Src\stm32f4xx_ll_usb.o
                0x080017fc                USB_CoreInit
 .text.USB_EnableGlobalInt
                0x08001870        0xc Drivers\STM32F4xx_HAL_Driver\Src\stm32f4xx_ll_usb.o
                0x08001870                USB_EnableGlobalInt
 .text.USB_DisableGlobalInt
                0x0800187c        0xc Drivers\STM32F4xx_HAL_Driver\Src\stm32f4xx_ll_usb.o
                0x0800187c                USB_DisableGlobalInt
 .text.USB_SetCurrentMode
                0x08001888       0x2e Drivers\STM32F4xx_HAL_Driver\Src\stm32f4xx_ll_usb.o
                0x08001888                USB_SetCurrentMode
 *fill*         0x080018b6        0x2 
 .text.USB_DevInit
                0x080018b8      0x138 Drivers\STM32F4xx_HAL_Driver\Src\stm32f4xx_ll_usb.o
                0x080018b8                USB_DevInit
 .text.USB_FlushTxFifo
                0x080019f0       0x24 Drivers\STM32F4xx_HAL_Driver\Src\stm32f4xx_ll_usb.o
                0x080019f0                USB_FlushTxFifo
 .text.USB_FlushRxFifo
                0x08001a14       0x20 Drivers\STM32F4xx_HAL_Driver\Src\stm32f4xx_ll_usb.o
                0x08001a14                USB_FlushRxFifo
 .text.USB_SetDevSpeed
                0x08001a34        0xe Drivers\STM32F4xx_HAL_Driver\Src\stm32f4xx_ll_usb.o
                0x08001a34                USB_SetDevSpeed
 .text.USB_GetDevSpeed
                0x08001a42       0x36 Drivers\STM32F4xx_HAL_Driver\Src\stm32f4xx_ll_usb.o
                0x08001a42                USB_GetDevSpeed
 .text.USB_ActivateEndpoint
                0x08001a78       0x7e Drivers\STM32F4xx_HAL_Driver\Src\stm32f4xx_ll_usb.o
                0x08001a78                USB_ActivateEndpoint
 .text.USB_DeactivateEndpoint
                0x08001af6        0x4 Drivers\STM32F4xx_HAL_Driver\Src\stm32f4xx_ll_usb.o
                0x08001af6                USB_DeactivateEndpoint
 *fill*         0x08001afa        0x2 
 .text.USB_DeactivateDedicatedEndpoint
                0x08001afc       0xb0 Drivers\STM32F4xx_HAL_Driver\Src\stm32f4xx_ll_usb.o
                0x08001afc                USB_DeactivateDedicatedEndpoint
 .text.USB_EPStartXfer
                0x08001bac      0x18c Drivers\STM32F4xx_HAL_Driver\Src\stm32f4xx_ll_usb.o
                0x08001bac                USB_EPStartXfer
 .text.USB_EP0StartXfer
                0x08001d38       0xda Drivers\STM32F4xx_HAL_Driver\Src\stm32f4xx_ll_usb.o
                0x08001d38                USB_EP0StartXfer
 .text.USB_WritePacket
                0x08001e12       0x28 Drivers\STM32F4xx_HAL_Driver\Src\stm32f4xx_ll_usb.o
                0x08001e12                USB_WritePacket
 .text.USB_ReadPacket
                0x08001e3a       0x1c Drivers\STM32F4xx_HAL_Driver\Src\stm32f4xx_ll_usb.o
                0x08001e3a                USB_ReadPacket
 .text.USB_EPSetStall
                0x08001e56       0x3e Drivers\STM32F4xx_HAL_Driver\Src\stm32f4xx_ll_usb.o
                0x08001e56                USB_EPSetStall
 .text.USB_EPClearStall
                0x08001e94       0x32 Drivers\STM32F4xx_HAL_Driver\Src\stm32f4xx_ll_usb.o
                0x08001e94                USB_EPClearStall
 .text.USB_SetDevAddress
                0x08001ec6       0x20 Drivers\STM32F4xx_HAL_Driver\Src\stm32f4xx_ll_usb.o
                0x08001ec6                USB_SetDevAddress
 .text.USB_DevConnect
                0x08001ee6       0x18 Drivers\STM32F4xx_HAL_Driver\Src\stm32f4xx_ll_usb.o
                0x08001ee6                USB_DevConnect
 .text.USB_DevDisconnect
                0x08001efe       0x18 Drivers\STM32F4xx_HAL_Driver\Src\stm32f4xx_ll_usb.o
                0x08001efe                USB_DevDisconnect
 .text.USB_ReadInterrupts
                0x08001f16        0x8 Drivers\STM32F4xx_HAL_Driver\Src\stm32f4xx_ll_usb.o
                0x08001f16                USB_ReadInterrupts
 .text.USB_ReadDevAllOutEpInterrupt
                0x08001f1e       0x10 Drivers\STM32F4xx_HAL_Driver\Src\stm32f4xx_ll_usb.o
                0x08001f1e                USB_ReadDevAllOutEpInterrupt
 .text.USB_ReadDevAllInEpInterrupt
                0x08001f2e       0x10 Drivers\STM32F4xx_HAL_Driver\Src\stm32f4xx_ll_usb.o
                0x08001f2e                USB_ReadDevAllInEpInterrupt
 .text.USB_ReadDevOutEPInterrupt
                0x08001f3e       0x14 Drivers\STM32F4xx_HAL_Driver\Src\stm32f4xx_ll_usb.o
                0x08001f3e                USB_ReadDevOutEPInterrupt
 .text.USB_ReadDevInEPInterrupt
                0x08001f52       0x20 Drivers\STM32F4xx_HAL_Driver\Src\stm32f4xx_ll_usb.o
                0x08001f52                USB_ReadDevInEPInterrupt
 .text.USB_GetMode
                0x08001f72        0x8 Drivers\STM32F4xx_HAL_Driver\Src\stm32f4xx_ll_usb.o
                0x08001f72                USB_GetMode
 .text.USB_ActivateSetup
                0x08001f7a       0x36 Drivers\STM32F4xx_HAL_Driver\Src\stm32f4xx_ll_usb.o
                0x08001f7a                USB_ActivateSetup
 .text.USB_EP0_OutStart
                0x08001fb0       0x46 Drivers\STM32F4xx_HAL_Driver\Src\stm32f4xx_ll_usb.o
                0x08001fb0                USB_EP0_OutStart
 *fill*         0x08001ff6        0x2 
 .text.USB_CoreReset
                0x08001ff8       0x30 Drivers\STM32F4xx_HAL_Driver\Src\stm32f4xx_ll_usb.o
 .text.MX_USB_DEVICE_Init
                0x08002028       0x44 Middlewares\ST\STM32_USB_Device_Library\App\Src\usb_device.o
                0x08002028                MX_USB_DEVICE_Init
 .text.HAL_PCD_MspInit
                0x0800206c       0x78 Middlewares\ST\STM32_USB_Device_Library\App\Src\usbd_conf.o
                0x0800206c                HAL_PCD_MspInit
 .text.HAL_PCD_SetupStageCallback
                0x080020e4        0xc Middlewares\ST\STM32_USB_Device_Library\App\Src\usbd_conf.o
                0x080020e4                HAL_PCD_SetupStageCallback
 .text.HAL_PCD_DataOutStageCallback
                0x080020f0       0x12 Middlewares\ST\STM32_USB_Device_Library\App\Src\usbd_conf.o
                0x080020f0                HAL_PCD_DataOutStageCallback
 .text.HAL_PCD_DataInStageCallback
                0x08002102       0x10 Middlewares\ST\STM32_USB_Device_Library\App\Src\usbd_conf.o
                0x08002102                HAL_PCD_DataInStageCallback
 .text.HAL_PCD_SOFCallback
                0x08002112        0x8 Middlewares\ST\STM32_USB_Device_Library\App\Src\usbd_conf.o
                0x08002112                HAL_PCD_SOFCallback
 .text.HAL_PCD_ResetCallback
                0x0800211a       0x20 Middlewares\ST\STM32_USB_Device_Library\App\Src\usbd_conf.o
                0x0800211a                HAL_PCD_ResetCallback
 *fill*         0x0800213a        0x2 
 .text.HAL_PCD_SuspendCallback
                0x0800213c       0x30 Middlewares\ST\STM32_USB_Device_Library\App\Src\usbd_conf.o
                0x0800213c                HAL_PCD_SuspendCallback
 .text.HAL_PCD_ResumeCallback
                0x0800216c        0x8 Middlewares\ST\STM32_USB_Device_Library\App\Src\usbd_conf.o
                0x0800216c                HAL_PCD_ResumeCallback
 .text.HAL_PCD_ISOOUTIncompleteCallback
                0x08002174        0x8 Middlewares\ST\STM32_USB_Device_Library\App\Src\usbd_conf.o
                0x08002174                HAL_PCD_ISOOUTIncompleteCallback
 .text.HAL_PCD_ISOINIncompleteCallback
                0x0800217c        0x8 Middlewares\ST\STM32_USB_Device_Library\App\Src\usbd_conf.o
                0x0800217c                HAL_PCD_ISOINIncompleteCallback
 .text.HAL_PCD_ConnectCallback
                0x08002184        0x8 Middlewares\ST\STM32_USB_Device_Library\App\Src\usbd_conf.o
                0x08002184                HAL_PCD_ConnectCallback
 .text.HAL_PCD_DisconnectCallback
                0x0800218c        0x8 Middlewares\ST\STM32_USB_Device_Library\App\Src\usbd_conf.o
                0x0800218c                HAL_PCD_DisconnectCallback
 .text.USBD_LL_Init
                0x08002194       0x80 Middlewares\ST\STM32_USB_Device_Library\App\Src\usbd_conf.o
                0x08002194                USBD_LL_Init
 .text.USBD_LL_Start
                0x08002214       0x1c Middlewares\ST\STM32_USB_Device_Library\App\Src\usbd_conf.o
                0x08002214                USBD_LL_Start
 .text.USBD_LL_OpenEP
                0x08002230       0x2c Middlewares\ST\STM32_USB_Device_Library\App\Src\usbd_conf.o
                0x08002230                USBD_LL_OpenEP
 .text.USBD_LL_CloseEP
                0x0800225c       0x24 Middlewares\ST\STM32_USB_Device_Library\App\Src\usbd_conf.o
                0x0800225c                USBD_LL_CloseEP
 .text.USBD_LL_StallEP
                0x08002280       0x1c Middlewares\ST\STM32_USB_Device_Library\App\Src\usbd_conf.o
                0x08002280                USBD_LL_StallEP
 .text.USBD_LL_ClearStallEP
                0x0800229c       0x1c Middlewares\ST\STM32_USB_Device_Library\App\Src\usbd_conf.o
                0x0800229c                USBD_LL_ClearStallEP
 .text.USBD_LL_IsStallEP
                0x080022b8       0x26 Middlewares\ST\STM32_USB_Device_Library\App\Src\usbd_conf.o
                0x080022b8                USBD_LL_IsStallEP
 *fill*         0x080022de        0x2 
 .text.USBD_LL_SetUSBAddress
                0x080022e0       0x1c Middlewares\ST\STM32_USB_Device_Library\App\Src\usbd_conf.o
                0x080022e0                USBD_LL_SetUSBAddress
 .text.USBD_LL_Transmit
                0x080022fc       0x2c Middlewares\ST\STM32_USB_Device_Library\App\Src\usbd_conf.o
                0x080022fc                USBD_LL_Transmit
 .text.USBD_LL_PrepareReceive
                0x08002328       0x2c Middlewares\ST\STM32_USB_Device_Library\App\Src\usbd_conf.o
                0x08002328                USBD_LL_PrepareReceive
 .text.USBD_LL_GetRxDataSize
                0x08002354       0x14 Middlewares\ST\STM32_USB_Device_Library\App\Src\usbd_conf.o
                0x08002354                USBD_LL_GetRxDataSize
 .text.OTG_FS_IRQHandler
                0x08002368        0xc Middlewares\ST\STM32_USB_Device_Library\App\Src\usbd_conf.o
                0x08002368                OTG_FS_IRQHandler
 .text.USBD_FS_DeviceDescriptor
                0x08002374        0xc Middlewares\ST\STM32_USB_Device_Library\App\Src\usbd_desc.o
                0x08002374                USBD_FS_DeviceDescriptor
 .text.USBD_FS_LangIDStrDescriptor
                0x08002380        0xc Middlewares\ST\STM32_USB_Device_Library\App\Src\usbd_desc.o
                0x08002380                USBD_FS_LangIDStrDescriptor
 .text.USBD_FS_ManufacturerStrDescriptor
                0x0800238c       0x1c Middlewares\ST\STM32_USB_Device_Library\App\Src\usbd_desc.o
                0x0800238c                USBD_FS_ManufacturerStrDescriptor
 .text.USBD_FS_ProductStrDescriptor
                0x080023a8       0x1c Middlewares\ST\STM32_USB_Device_Library\App\Src\usbd_desc.o
                0x080023a8                USBD_FS_ProductStrDescriptor
 .text.USBD_FS_SerialStrDescriptor
                0x080023c4       0x1c Middlewares\ST\STM32_USB_Device_Library\App\Src\usbd_desc.o
                0x080023c4                USBD_FS_SerialStrDescriptor
 .text.USBD_FS_ConfigStrDescriptor
                0x080023e0       0x1c Middlewares\ST\STM32_USB_Device_Library\App\Src\usbd_desc.o
                0x080023e0                USBD_FS_ConfigStrDescriptor
 .text.USBD_FS_InterfaceStrDescriptor
                0x080023fc       0x1c Middlewares\ST\STM32_USB_Device_Library\App\Src\usbd_desc.o
                0x080023fc                USBD_FS_InterfaceStrDescriptor
 .text.prvEMACHandlerTask
                0x08002418       0x80 Middlewares\ST\STM32_USB_Device_Library\App\Src\usbd_rndis_if.o
 .text.RNDIS_Receive_FS
                0x08002498       0x98 Middlewares\ST\STM32_USB_Device_Library\App\Src\usbd_rndis_if.o
 .text.RNDIS_Disconnect
                0x08002530       0x28 Middlewares\ST\STM32_USB_Device_Library\App\Src\usbd_rndis_if.o
                0x08002530                RNDIS_Disconnect
 .text.RNDIS_Control_FS
                0x08002558      0x2c0 Middlewares\ST\STM32_USB_Device_Library\App\Src\usbd_rndis_if.o
 .text.RNDIS_DeInit_FS
                0x08002818        0xa Middlewares\ST\STM32_USB_Device_Library\App\Src\usbd_rndis_if.o
 *fill*         0x08002822        0x2 
 .text.RNDIS_Init_FS
                0x08002824       0x2c Middlewares\ST\STM32_USB_Device_Library\App\Src\usbd_rndis_if.o
 .text.RNDIS_Transmit_FS
                0x08002850       0x80 Middlewares\ST\STM32_USB_Device_Library\App\Src\usbd_rndis_if.o
                0x08002850                RNDIS_Transmit_FS
 .text.xNetworkInterfaceInitialise
                0x080028d0       0x3c Middlewares\ST\STM32_USB_Device_Library\App\Src\usbd_rndis_if.o
                0x080028d0                xNetworkInterfaceInitialise
 .text.xNetworkInterfaceOutput
                0x0800290c       0x2c Middlewares\ST\STM32_USB_Device_Library\App\Src\usbd_rndis_if.o
                0x0800290c                xNetworkInterfaceOutput
 .text.USBD_COMPOSITE_Init
                0x08002938       0x60 Middlewares\ST\STM32_USB_Device_Library\Class\Composite\Src\usbd_composite.o
 .text.USBD_COMPOSITE_DeInit
                0x08002998       0x60 Middlewares\ST\STM32_USB_Device_Library\Class\Composite\Src\usbd_composite.o
 .text.USBD_COMPOSITE_Setup
                0x080029f8       0xf4 Middlewares\ST\STM32_USB_Device_Library\Class\Composite\Src\usbd_composite.o
 .text.USBD_COMPOSITE_DataIn
                0x08002aec       0x78 Middlewares\ST\STM32_USB_Device_Library\Class\Composite\Src\usbd_composite.o
 .text.USBD_COMPOSITE_DataOut
                0x08002b64       0x7c Middlewares\ST\STM32_USB_Device_Library\Class\Composite\Src\usbd_composite.o
 .text.USBD_COMPOSITE_EP0_RxReady
                0x08002be0       0x60 Middlewares\ST\STM32_USB_Device_Library\Class\Composite\Src\usbd_composite.o
 .text.USBD_COMPOSITE_EP0_TxReady
                0x08002c40       0x60 Middlewares\ST\STM32_USB_Device_Library\Class\Composite\Src\usbd_composite.o
 .text.USBD_COMPOSITE_SOF
                0x08002ca0       0x60 Middlewares\ST\STM32_USB_Device_Library\Class\Composite\Src\usbd_composite.o
 .text.USBD_COMPOSITE_IsoINIncomplete
                0x08002d00       0x78 Middlewares\ST\STM32_USB_Device_Library\Class\Composite\Src\usbd_composite.o
 .text.USBD_COMPOSITE_IsoOutIncomplete
                0x08002d78       0x7c Middlewares\ST\STM32_USB_Device_Library\Class\Composite\Src\usbd_composite.o
 .text.USBD_COMPOSITE_GetOtherSpeedCfgDesc
                0x08002df4       0x14 Middlewares\ST\STM32_USB_Device_Library\Class\Composite\Src\usbd_composite.o
 .text.USBD_COMPOSITE_GetDeviceQualifierDescriptor
                0x08002e08        0xc Middlewares\ST\STM32_USB_Device_Library\Class\Composite\Src\usbd_composite.o
                0x08002e08                USBD_COMPOSITE_GetDeviceQualifierDescriptor
 .text.USBD_COMPOSITE_GetHSCfgDesc
                0x08002e14       0x14 Middlewares\ST\STM32_USB_Device_Library\Class\Composite\Src\usbd_composite.o
 .text.USBD_COMPOSITE_GetFSCfgDesc
                0x08002e28       0x14 Middlewares\ST\STM32_USB_Device_Library\Class\Composite\Src\usbd_composite.o
 .text.USBD_COMPOSITE_RegisterClass
                0x08002e3c      0x1f8 Middlewares\ST\STM32_USB_Device_Library\Class\Composite\Src\usbd_composite.o
                0x08002e3c                USBD_COMPOSITE_RegisterClass
 .text.USBD_COMPOSITE_LL_EP_Conversion
                0x08003034       0xa4 Middlewares\ST\STM32_USB_Device_Library\Class\Composite\Src\usbd_composite.o
                0x08003034                USBD_COMPOSITE_LL_EP_Conversion
 .text.USBD_RNDIS_DataIn
                0x080030d8       0x12 Middlewares\ST\STM32_USB_Device_Library\Class\RNDIS\Src\usbd_rndis.o
 .text.USBD_RNDIS_EP0_RxReady
                0x080030ea       0x28 Middlewares\ST\STM32_USB_Device_Library\Class\RNDIS\Src\usbd_rndis.o
 *fill*         0x08003112        0x2 
 .text.USBD_RNDIS_GetFSCfgDesc
                0x08003114        0xc Middlewares\ST\STM32_USB_Device_Library\Class\RNDIS\Src\usbd_rndis.o
 .text.USBD_RNDIS_GetHSCfgDesc
                0x08003120        0xc Middlewares\ST\STM32_USB_Device_Library\Class\RNDIS\Src\usbd_rndis.o
 .text.USBD_RNDIS_GetOtherSpeedCfgDesc
                0x0800312c        0xc Middlewares\ST\STM32_USB_Device_Library\Class\RNDIS\Src\usbd_rndis.o
 .text.USBD_RNDIS_GetDeviceQualifierDescriptor
                0x08003138        0xc Middlewares\ST\STM32_USB_Device_Library\Class\RNDIS\Src\usbd_rndis.o
                0x08003138                USBD_RNDIS_GetDeviceQualifierDescriptor
 .text.USBD_RNDIS_DataOut
                0x08003144       0x2e Middlewares\ST\STM32_USB_Device_Library\Class\RNDIS\Src\usbd_rndis.o
 *fill*         0x08003172        0x2 
 .text.USBD_RNDIS_Setup
                0x08003174       0x68 Middlewares\ST\STM32_USB_Device_Library\Class\RNDIS\Src\usbd_rndis.o
 .text.USBD_RNDIS_DeInit
                0x080031dc       0x3a Middlewares\ST\STM32_USB_Device_Library\Class\RNDIS\Src\usbd_rndis.o
 .text.USBD_RNDIS_Init
                0x08003216       0x8c Middlewares\ST\STM32_USB_Device_Library\Class\RNDIS\Src\usbd_rndis.o
 .text.USBD_RNDIS_RegisterInterface
                0x080032a2        0xe Middlewares\ST\STM32_USB_Device_Library\Class\RNDIS\Src\usbd_rndis.o
                0x080032a2                USBD_RNDIS_RegisterInterface
 .text.USBD_RNDIS_SetTxBuffer
                0x080032b0       0x10 Middlewares\ST\STM32_USB_Device_Library\Class\RNDIS\Src\usbd_rndis.o
                0x080032b0                USBD_RNDIS_SetTxBuffer
 .text.USBD_RNDIS_SetRxBuffer
                0x080032c0        0xc Middlewares\ST\STM32_USB_Device_Library\Class\RNDIS\Src\usbd_rndis.o
                0x080032c0                USBD_RNDIS_SetRxBuffer
 .text.USBD_RNDIS_TransmitPacket
                0x080032cc       0x2e Middlewares\ST\STM32_USB_Device_Library\Class\RNDIS\Src\usbd_rndis.o
                0x080032cc                USBD_RNDIS_TransmitPacket
 .text.USBD_RNDIS_ReceivePacket
                0x080032fa       0x26 Middlewares\ST\STM32_USB_Device_Library\Class\RNDIS\Src\usbd_rndis.o
                0x080032fa                USBD_RNDIS_ReceivePacket
 .text.USBD_RNDIS_TransmitControl
                0x08003320       0x10 Middlewares\ST\STM32_USB_Device_Library\Class\RNDIS\Src\usbd_rndis.o
                0x08003320                USBD_RNDIS_TransmitControl
 .text.USBD_Init
                0x08003330       0x2a Middlewares\ST\STM32_USB_Device_Library\Core\Src\usbd_core.o
                0x08003330                USBD_Init
 .text.USBD_RegisterClass
                0x0800335a        0xe Middlewares\ST\STM32_USB_Device_Library\Core\Src\usbd_core.o
                0x0800335a                USBD_RegisterClass
 .text.USBD_Start
                0x08003368        0xa Middlewares\ST\STM32_USB_Device_Library\Core\Src\usbd_core.o
                0x08003368                USBD_Start
 .text.USBD_SetClassConfig
                0x08003372       0x16 Middlewares\ST\STM32_USB_Device_Library\Core\Src\usbd_core.o
                0x08003372                USBD_SetClassConfig
 .text.USBD_ClrClassConfig
                0x08003388        0xe Middlewares\ST\STM32_USB_Device_Library\Core\Src\usbd_core.o
                0x08003388                USBD_ClrClassConfig
 .text.USBD_LL_SetupStage
                0x08003396       0x5a Middlewares\ST\STM32_USB_Device_Library\Core\Src\usbd_core.o
                0x08003396                USBD_LL_SetupStage
 .text.USBD_LL_DataOutStage
                0x080033f0       0x64 Middlewares\ST\STM32_USB_Device_Library\Core\Src\usbd_core.o
                0x080033f0                USBD_LL_DataOutStage
 .text.USBD_LL_DataInStage
                0x08003454       0x9e Middlewares\ST\STM32_USB_Device_Library\Core\Src\usbd_core.o
                0x08003454                USBD_LL_DataInStage
 .text.USBD_LL_Reset
                0x080034f2       0x3e Middlewares\ST\STM32_USB_Device_Library\Core\Src\usbd_core.o
                0x080034f2                USBD_LL_Reset
 .text.USBD_LL_SetSpeed
                0x08003530        0x6 Middlewares\ST\STM32_USB_Device_Library\Core\Src\usbd_core.o
                0x08003530                USBD_LL_SetSpeed
 .text.USBD_LL_Suspend
                0x08003536       0x12 Middlewares\ST\STM32_USB_Device_Library\Core\Src\usbd_core.o
                0x08003536                USBD_LL_Suspend
 .text.USBD_LL_Resume
                0x08003548        0xc Middlewares\ST\STM32_USB_Device_Library\Core\Src\usbd_core.o
                0x08003548                USBD_LL_Resume
 .text.USBD_LL_SOF
                0x08003554       0x18 Middlewares\ST\STM32_USB_Device_Library\Core\Src\usbd_core.o
                0x08003554                USBD_LL_SOF
 .text.USBD_LL_IsoINIncomplete
                0x0800356c        0x4 Middlewares\ST\STM32_USB_Device_Library\Core\Src\usbd_core.o
                0x0800356c                USBD_LL_IsoINIncomplete
 .text.USBD_LL_IsoOUTIncomplete
                0x08003570        0x4 Middlewares\ST\STM32_USB_Device_Library\Core\Src\usbd_core.o
                0x08003570                USBD_LL_IsoOUTIncomplete
 .text.USBD_LL_DevConnected
                0x08003574        0x4 Middlewares\ST\STM32_USB_Device_Library\Core\Src\usbd_core.o
                0x08003574                USBD_LL_DevConnected
 .text.USBD_LL_DevDisconnected
                0x08003578       0x16 Middlewares\ST\STM32_USB_Device_Library\Core\Src\usbd_core.o
                0x08003578                USBD_LL_DevDisconnected
 .text.USBD_CtlError.constprop.0
                0x0800358e       0x16 Middlewares\ST\STM32_USB_Device_Library\Core\Src\usbd_ctlreq.o
 .text.USBD_StdDevReq
                0x080035a4      0x1f4 Middlewares\ST\STM32_USB_Device_Library\Core\Src\usbd_ctlreq.o
                0x080035a4                USBD_StdDevReq
 .text.USBD_StdItfReq
                0x08003798       0x30 Middlewares\ST\STM32_USB_Device_Library\Core\Src\usbd_ctlreq.o
                0x08003798                USBD_StdItfReq
 .text.USBD_StdEPReq
                0x080037c8       0xc6 Middlewares\ST\STM32_USB_Device_Library\Core\Src\usbd_ctlreq.o
                0x080037c8                USBD_StdEPReq
 .text.USBD_ParseSetupRequest
                0x0800388e       0x28 Middlewares\ST\STM32_USB_Device_Library\Core\Src\usbd_ctlreq.o
                0x0800388e                USBD_ParseSetupRequest
 .text.USBD_GetString
                0x080038b6       0x38 Middlewares\ST\STM32_USB_Device_Library\Core\Src\usbd_ctlreq.o
                0x080038b6                USBD_GetString
 .text.USBD_CtlSendData
                0x080038ee       0x1a Middlewares\ST\STM32_USB_Device_Library\Core\Src\usbd_ioreq.o
                0x080038ee                USBD_CtlSendData
 .text.USBD_CtlContinueSendData
                0x08003908       0x10 Middlewares\ST\STM32_USB_Device_Library\Core\Src\usbd_ioreq.o
                0x08003908                USBD_CtlContinueSendData
 .text.USBD_CtlPrepareRx
                0x08003918       0x1e Middlewares\ST\STM32_USB_Device_Library\Core\Src\usbd_ioreq.o
                0x08003918                USBD_CtlPrepareRx
 .text.USBD_CtlContinueRx
                0x08003936       0x10 Middlewares\ST\STM32_USB_Device_Library\Core\Src\usbd_ioreq.o
                0x08003936                USBD_CtlContinueRx
 .text.USBD_CtlSendStatus
                0x08003946       0x16 Middlewares\ST\STM32_USB_Device_Library\Core\Src\usbd_ioreq.o
                0x08003946                USBD_CtlSendStatus
 .text.USBD_CtlReceiveStatus
                0x0800395c       0x16 Middlewares\ST\STM32_USB_Device_Library\Core\Src\usbd_ioreq.o
                0x0800395c                USBD_CtlReceiveStatus
 .text.osKernelStart
                0x08003972        0xa Middlewares\Third_Party\FreeRTOS\Source\CMSIS_RTOS\cmsis_os.o
                0x08003972                osKernelStart
 .text.osThreadCreate
                0x0800397c       0x30 Middlewares\Third_Party\FreeRTOS\Source\CMSIS_RTOS\cmsis_os.o
                0x0800397c                osThreadCreate
 .text.osDelay  0x080039ac       0x10 Middlewares\Third_Party\FreeRTOS\Source\CMSIS_RTOS\cmsis_os.o
                0x080039ac                osDelay
 .text.osSystickHandler
                0x080039bc       0x14 Middlewares\Third_Party\FreeRTOS\Source\CMSIS_RTOS\cmsis_os.o
                0x080039bc                osSystickHandler
 .text.xEventGroupCreate
                0x080039d0       0x1a Middlewares\Third_Party\FreeRTOS\Source\event_groups.o
                0x080039d0                xEventGroupCreate
 *fill*         0x080039ea        0x2 
 .text.xEventGroupWaitBits
                0x080039ec      0x114 Middlewares\Third_Party\FreeRTOS\Source\event_groups.o
                0x080039ec                xEventGroupWaitBits
 .text.xEventGroupClearBits
                0x08003b00       0x46 Middlewares\Third_Party\FreeRTOS\Source\event_groups.o
                0x08003b00                xEventGroupClearBits
 .text.xEventGroupSetBits
                0x08003b46       0x82 Middlewares\Third_Party\FreeRTOS\Source\event_groups.o
                0x08003b46                xEventGroupSetBits
 .text.vEventGroupDelete
                0x08003bc8       0x40 Middlewares\Third_Party\FreeRTOS\Source\event_groups.o
                0x08003bc8                vEventGroupDelete
 .text.vListInitialise
                0x08003c08       0x16 Middlewares\Third_Party\FreeRTOS\Source\list.o
                0x08003c08                vListInitialise
 .text.vListInitialiseItem
                0x08003c1e        0x6 Middlewares\Third_Party\FreeRTOS\Source\list.o
                0x08003c1e                vListInitialiseItem
 .text.vListInsertEnd
                0x08003c24       0x18 Middlewares\Third_Party\FreeRTOS\Source\list.o
                0x08003c24                vListInsertEnd
 .text.vListInsert
                0x08003c3c       0x2e Middlewares\Third_Party\FreeRTOS\Source\list.o
                0x08003c3c                vListInsert
 .text.uxListRemove
                0x08003c6a       0x20 Middlewares\Third_Party\FreeRTOS\Source\list.o
                0x08003c6a                uxListRemove
 *fill*         0x08003c8a        0x2 
 .text.prvTaskExitError
                0x08003c8c       0x30 Middlewares\Third_Party\FreeRTOS\Source\portable\GCC\ARM_CM4F\port.o
 .text.prvPortStartFirstTask
                0x08003cbc       0x20 Middlewares\Third_Party\FreeRTOS\Source\portable\GCC\ARM_CM4F\port.o
 .text.vPortEnableVFP
                0x08003cdc       0x14 Middlewares\Third_Party\FreeRTOS\Source\portable\GCC\ARM_CM4F\port.o
 .text.pxPortInitialiseStack
                0x08003cf0       0x2c Middlewares\Third_Party\FreeRTOS\Source\portable\GCC\ARM_CM4F\port.o
                0x08003cf0                pxPortInitialiseStack
 *fill*         0x08003d1c        0x4 
 .text.SVC_Handler
                0x08003d20       0x24 Middlewares\Third_Party\FreeRTOS\Source\portable\GCC\ARM_CM4F\port.o
                0x08003d20                SVC_Handler
 .text.vPortEnterCritical
                0x08003d44       0x44 Middlewares\Third_Party\FreeRTOS\Source\portable\GCC\ARM_CM4F\port.o
                0x08003d44                vPortEnterCritical
 .text.vPortExitCritical
                0x08003d88       0x28 Middlewares\Third_Party\FreeRTOS\Source\portable\GCC\ARM_CM4F\port.o
                0x08003d88                vPortExitCritical
 .text.PendSV_Handler
                0x08003db0       0x64 Middlewares\Third_Party\FreeRTOS\Source\portable\GCC\ARM_CM4F\port.o
                0x08003db0                PendSV_Handler
 .text.xPortSysTickHandler
                0x08003e14       0x2c Middlewares\Third_Party\FreeRTOS\Source\portable\GCC\ARM_CM4F\port.o
                0x08003e14                xPortSysTickHandler
 .text.vPortSetupTimerInterrupt
                0x08003e40       0x28 Middlewares\Third_Party\FreeRTOS\Source\portable\GCC\ARM_CM4F\port.o
                0x08003e40                vPortSetupTimerInterrupt
 .text.xPortStartScheduler
                0x08003e68       0xec Middlewares\Third_Party\FreeRTOS\Source\portable\GCC\ARM_CM4F\port.o
                0x08003e68                xPortStartScheduler
 .text.vPortValidateInterruptPriority
                0x08003f54       0x5c Middlewares\Third_Party\FreeRTOS\Source\portable\GCC\ARM_CM4F\port.o
                0x08003f54                vPortValidateInterruptPriority
 .text.unlikely.prvInsertBlockIntoFreeList
                0x08003fb0       0x48 Middlewares\Third_Party\FreeRTOS\Source\portable\MemMang\heap_4.o
 .text.pvPortMalloc
                0x08003ff8      0x124 Middlewares\Third_Party\FreeRTOS\Source\portable\MemMang\heap_4.o
                0x08003ff8                pvPortMalloc
 .text.vPortFree
                0x0800411c       0x70 Middlewares\Third_Party\FreeRTOS\Source\portable\MemMang\heap_4.o
                0x0800411c                vPortFree
 .text.unlikely.prvCopyDataToQueue
                0x0800418c       0x66 Middlewares\Third_Party\FreeRTOS\Source\queue.o
 .text.unlikely.prvCopyDataFromQueue
                0x080041f2       0x2a Middlewares\Third_Party\FreeRTOS\Source\queue.o
 .text.prvUnlockQueue
                0x0800421c       0x70 Middlewares\Third_Party\FreeRTOS\Source\queue.o
 .text.xQueueGenericReset
                0x0800428c       0x80 Middlewares\Third_Party\FreeRTOS\Source\queue.o
                0x0800428c                xQueueGenericReset
 .text.xQueueGenericCreate
                0x0800430c       0x42 Middlewares\Third_Party\FreeRTOS\Source\queue.o
                0x0800430c                xQueueGenericCreate
 .text.xQueueCreateCountingSemaphore
                0x0800434e       0x3c Middlewares\Third_Party\FreeRTOS\Source\queue.o
                0x0800434e                xQueueCreateCountingSemaphore
 *fill*         0x0800438a        0x2 
 .text.xQueueGenericSend
                0x0800438c      0x16c Middlewares\Third_Party\FreeRTOS\Source\queue.o
                0x0800438c                xQueueGenericSend
 .text.xQueueGenericSendFromISR
                0x080044f8       0xc4 Middlewares\Third_Party\FreeRTOS\Source\queue.o
                0x080044f8                xQueueGenericSendFromISR
 .text.xQueueGenericReceive
                0x080045bc      0x188 Middlewares\Third_Party\FreeRTOS\Source\queue.o
                0x080045bc                xQueueGenericReceive
 .text.uxQueueMessagesWaiting
                0x08004744       0x26 Middlewares\Third_Party\FreeRTOS\Source\queue.o
                0x08004744                uxQueueMessagesWaiting
 *fill*         0x0800476a        0x2 
 .text.vQueueAddToRegistry
                0x0800476c       0x24 Middlewares\Third_Party\FreeRTOS\Source\queue.o
                0x0800476c                vQueueAddToRegistry
 .text.vQueueUnregisterQueue
                0x08004790       0x28 Middlewares\Third_Party\FreeRTOS\Source\queue.o
                0x08004790                vQueueUnregisterQueue
 .text.vQueueDelete
                0x080047b8       0x26 Middlewares\Third_Party\FreeRTOS\Source\queue.o
                0x080047b8                vQueueDelete
 *fill*         0x080047de        0x2 
 .text.prvResetNextTaskUnblockTime
                0x080047e0       0x24 Middlewares\Third_Party\FreeRTOS\Source\tasks.o
 .text.prvAddCurrentTaskToDelayedList
                0x08004804       0x8c Middlewares\Third_Party\FreeRTOS\Source\tasks.o
 .text.vTaskSetTimeOutState.part.4
                0x08004890       0x12 Middlewares\Third_Party\FreeRTOS\Source\tasks.o
 *fill*         0x080048a2        0x2 
 .text.xTaskCreate
                0x080048a4      0x1ac Middlewares\Third_Party\FreeRTOS\Source\tasks.o
                0x080048a4                xTaskCreate
 .text.vTaskStartScheduler
                0x08004a50       0x78 Middlewares\Third_Party\FreeRTOS\Source\tasks.o
                0x08004a50                vTaskStartScheduler
 .text.vTaskSuspendAll
                0x08004ac8       0x10 Middlewares\Third_Party\FreeRTOS\Source\tasks.o
                0x08004ac8                vTaskSuspendAll
 .text.xTaskGetTickCount
                0x08004ad8        0xc Middlewares\Third_Party\FreeRTOS\Source\tasks.o
                0x08004ad8                xTaskGetTickCount
 .text.xTaskIncrementTick
                0x08004ae4      0x124 Middlewares\Third_Party\FreeRTOS\Source\tasks.o
                0x08004ae4                xTaskIncrementTick
 .text.xTaskResumeAll
                0x08004c08       0xf0 Middlewares\Third_Party\FreeRTOS\Source\tasks.o
                0x08004c08                xTaskResumeAll
 .text.vTaskDelay
                0x08004cf8       0x48 Middlewares\Third_Party\FreeRTOS\Source\tasks.o
                0x08004cf8                vTaskDelay
 .text.prvIdleTask
                0x08004d40       0x74 Middlewares\Third_Party\FreeRTOS\Source\tasks.o
 .text.vTaskSwitchContext
                0x08004db4       0xa4 Middlewares\Third_Party\FreeRTOS\Source\tasks.o
                0x08004db4                vTaskSwitchContext
 .text.vTaskPlaceOnEventList
                0x08004e58       0x34 Middlewares\Third_Party\FreeRTOS\Source\tasks.o
                0x08004e58                vTaskPlaceOnEventList
 .text.vTaskPlaceOnUnorderedEventList
                0x08004e8c       0x58 Middlewares\Third_Party\FreeRTOS\Source\tasks.o
                0x08004e8c                vTaskPlaceOnUnorderedEventList
 .text.xTaskRemoveFromEventList
                0x08004ee4       0x84 Middlewares\Third_Party\FreeRTOS\Source\tasks.o
                0x08004ee4                xTaskRemoveFromEventList
 .text.xTaskRemoveFromUnorderedEventList
                0x08004f68       0x8c Middlewares\Third_Party\FreeRTOS\Source\tasks.o
                0x08004f68                xTaskRemoveFromUnorderedEventList
 .text.vTaskSetTimeOutState
                0x08004ff4       0x20 Middlewares\Third_Party\FreeRTOS\Source\tasks.o
                0x08004ff4                vTaskSetTimeOutState
 .text.xTaskCheckForTimeOut
                0x08005014       0x74 Middlewares\Third_Party\FreeRTOS\Source\tasks.o
                0x08005014                xTaskCheckForTimeOut
 .text.vTaskMissedYield
                0x08005088        0xc Middlewares\Third_Party\FreeRTOS\Source\tasks.o
                0x08005088                vTaskMissedYield
 .text.xTaskGetCurrentTaskHandle
                0x08005094        0xc Middlewares\Third_Party\FreeRTOS\Source\tasks.o
                0x08005094                xTaskGetCurrentTaskHandle
 .text.xTaskGetSchedulerState
                0x080050a0       0x20 Middlewares\Third_Party\FreeRTOS\Source\tasks.o
                0x080050a0                xTaskGetSchedulerState
 .text.vTaskPriorityInherit
                0x080050c0       0x8c Middlewares\Third_Party\FreeRTOS\Source\tasks.o
                0x080050c0                vTaskPriorityInherit
 .text.xTaskPriorityDisinherit
                0x0800514c       0xa0 Middlewares\Third_Party\FreeRTOS\Source\tasks.o
                0x0800514c                xTaskPriorityDisinherit
 .text.uxTaskResetEventItemValue
                0x080051ec       0x18 Middlewares\Third_Party\FreeRTOS\Source\tasks.o
                0x080051ec                uxTaskResetEventItemValue
 .text.pvTaskIncrementMutexHeldCount
                0x08005204       0x18 Middlewares\Third_Party\FreeRTOS\Source\tasks.o
                0x08005204                pvTaskIncrementMutexHeldCount
 .text.ulTaskNotifyTake
                0x0800521c       0x64 Middlewares\Third_Party\FreeRTOS\Source\tasks.o
                0x0800521c                ulTaskNotifyTake
 .text.vTaskNotifyGiveFromISR
                0x08005280       0xcc Middlewares\Third_Party\FreeRTOS\Source\tasks.o
                0x08005280                vTaskNotifyGiveFromISR
 .text.vARPRefreshCacheEntry
                0x0800534c       0xfc Middlewares\Third_Party\FreeRTOS-Plus\FreeRTOS-Plus-TCP\FreeRTOS_ARP.o
                0x0800534c                vARPRefreshCacheEntry
 .text.eARPProcessPacket
                0x08005448       0x9c Middlewares\Third_Party\FreeRTOS-Plus\FreeRTOS-Plus-TCP\FreeRTOS_ARP.o
                0x08005448                eARPProcessPacket
 .text.eARPGetCacheEntry
                0x080054e4       0x84 Middlewares\Third_Party\FreeRTOS-Plus\FreeRTOS-Plus-TCP\FreeRTOS_ARP.o
                0x080054e4                eARPGetCacheEntry
 .text.vARPSendGratuitous
                0x08005568       0x10 Middlewares\Third_Party\FreeRTOS-Plus\FreeRTOS-Plus-TCP\FreeRTOS_ARP.o
                0x08005568                vARPSendGratuitous
 .text.vARPGenerateRequestPacket
                0x08005578       0x48 Middlewares\Third_Party\FreeRTOS-Plus\FreeRTOS-Plus-TCP\FreeRTOS_ARP.o
                0x08005578                vARPGenerateRequestPacket
 .text.FreeRTOS_OutputARPRequest
                0x080055c0       0x24 Middlewares\Third_Party\FreeRTOS-Plus\FreeRTOS-Plus-TCP\FreeRTOS_ARP.o
                0x080055c0                FreeRTOS_OutputARPRequest
 .text.vARPAgeCache
                0x080055e4       0x5c Middlewares\Third_Party\FreeRTOS-Plus\FreeRTOS-Plus-TCP\FreeRTOS_ARP.o
                0x080055e4                vARPAgeCache
 .text.prvProcessDHCPReplies
                0x08005640      0x144 Middlewares\Third_Party\FreeRTOS-Plus\FreeRTOS-Plus-TCP\FreeRTOS_DHCP.o
 .text.prvCreateDHCPSocket
                0x08005784       0x60 Middlewares\Third_Party\FreeRTOS-Plus\FreeRTOS-Plus-TCP\FreeRTOS_DHCP.o
 .text.prvCreatePartDHCPMessage.constprop.1
                0x080057e4       0xe0 Middlewares\Third_Party\FreeRTOS-Plus\FreeRTOS-Plus-TCP\FreeRTOS_DHCP.o
 .text.prvSendDHCPRequest
                0x080058c4       0x50 Middlewares\Third_Party\FreeRTOS-Plus\FreeRTOS-Plus-TCP\FreeRTOS_DHCP.o
 .text.prvSendDHCPDiscover
                0x08005914       0x44 Middlewares\Third_Party\FreeRTOS-Plus\FreeRTOS-Plus-TCP\FreeRTOS_DHCP.o
 .text.xIsDHCPSocket
                0x08005958       0x10 Middlewares\Third_Party\FreeRTOS-Plus\FreeRTOS-Plus-TCP\FreeRTOS_DHCP.o
                0x08005958                xIsDHCPSocket
 .text.vDHCPProcess
                0x08005968      0x19c Middlewares\Third_Party\FreeRTOS-Plus\FreeRTOS-Plus-TCP\FreeRTOS_DHCP.o
                0x08005968                vDHCPProcess
 .text.prvSkipNameField
                0x08005b04       0x1c Middlewares\Third_Party\FreeRTOS-Plus\FreeRTOS-Plus-TCP\FreeRTOS_DNS.o
 .text.prvParseDNSReply
                0x08005b20      0x310 Middlewares\Third_Party\FreeRTOS-Plus\FreeRTOS-Plus-TCP\FreeRTOS_DNS.o
 .text.vDNSInitialise
                0x08005e30        0xc Middlewares\Third_Party\FreeRTOS-Plus\FreeRTOS-Plus-TCP\FreeRTOS_DNS.o
                0x08005e30                vDNSInitialise
 .text.vDNSCheckCallBack
                0x08005e3c       0x68 Middlewares\Third_Party\FreeRTOS-Plus\FreeRTOS-Plus-TCP\FreeRTOS_DNS.o
                0x08005e3c                vDNSCheckCallBack
 .text.ulDNSHandlePacket
                0x08005ea4       0x10 Middlewares\Third_Party\FreeRTOS-Plus\FreeRTOS-Plus-TCP\FreeRTOS_DNS.o
                0x08005ea4                ulDNSHandlePacket
 .text.prvIPTimerStart
                0x08005eb4       0x28 Middlewares\Third_Party\FreeRTOS-Plus\FreeRTOS-Plus-TCP\FreeRTOS_IP.o
 .text.prvIPTimerCheck
                0x08005edc       0x2e Middlewares\Third_Party\FreeRTOS-Plus\FreeRTOS-Plus-TCP\FreeRTOS_IP.o
 *fill*         0x08005f0a        0x2 
 .text.xIsCallingFromIPTask
                0x08005f0c       0x18 Middlewares\Third_Party\FreeRTOS-Plus\FreeRTOS-Plus-TCP\FreeRTOS_IP.o
                0x08005f0c                xIsCallingFromIPTask
 .text.FreeRTOS_NetworkDownFromISR
                0x08005f24       0x34 Middlewares\Third_Party\FreeRTOS-Plus\FreeRTOS-Plus-TCP\FreeRTOS_IP.o
                0x08005f24                FreeRTOS_NetworkDownFromISR
 .text.FreeRTOS_GetUDPPayloadBuffer
                0x08005f58       0x1a Middlewares\Third_Party\FreeRTOS-Plus\FreeRTOS-Plus-TCP\FreeRTOS_IP.o
                0x08005f58                FreeRTOS_GetUDPPayloadBuffer
 .text.pxDuplicateNetworkBufferWithDescriptor
                0x08005f72       0x2a Middlewares\Third_Party\FreeRTOS-Plus\FreeRTOS-Plus-TCP\FreeRTOS_IP.o
                0x08005f72                pxDuplicateNetworkBufferWithDescriptor
 .text.pxUDPPayloadBuffer_to_NetworkBuffer
                0x08005f9c       0x10 Middlewares\Third_Party\FreeRTOS-Plus\FreeRTOS-Plus-TCP\FreeRTOS_IP.o
                0x08005f9c                pxUDPPayloadBuffer_to_NetworkBuffer
 .text.FreeRTOS_ReleaseUDPPayloadBuffer
                0x08005fac        0xe Middlewares\Third_Party\FreeRTOS-Plus\FreeRTOS-Plus-TCP\FreeRTOS_IP.o
                0x08005fac                FreeRTOS_ReleaseUDPPayloadBuffer
 *fill*         0x08005fba        0x2 
 .text.FreeRTOS_IPInit
                0x08005fbc      0x110 Middlewares\Third_Party\FreeRTOS-Plus\FreeRTOS-Plus-TCP\FreeRTOS_IP.o
                0x08005fbc                FreeRTOS_IPInit
 .text.xSendEventStructToIPTask
                0x080060cc       0x58 Middlewares\Third_Party\FreeRTOS-Plus\FreeRTOS-Plus-TCP\FreeRTOS_IP.o
                0x080060cc                xSendEventStructToIPTask
 .text.FreeRTOS_NetworkDown
                0x08006124       0x20 Middlewares\Third_Party\FreeRTOS-Plus\FreeRTOS-Plus-TCP\FreeRTOS_IP.o
                0x08006124                FreeRTOS_NetworkDown
 .text.xSendEventToIPTask
                0x08006144       0x16 Middlewares\Third_Party\FreeRTOS-Plus\FreeRTOS-Plus-TCP\FreeRTOS_IP.o
                0x08006144                xSendEventToIPTask
 *fill*         0x0800615a        0x2 
 .text.eConsiderFrameForProcessing
                0x0800615c       0x50 Middlewares\Third_Party\FreeRTOS-Plus\FreeRTOS-Plus-TCP\FreeRTOS_IP.o
                0x0800615c                eConsiderFrameForProcessing
 .text.vIPNetworkUpCalls
                0x080061ac       0x2c Middlewares\Third_Party\FreeRTOS-Plus\FreeRTOS-Plus-TCP\FreeRTOS_IP.o
                0x080061ac                vIPNetworkUpCalls
 .text.vReturnEthernetFrame
                0x080061d8       0x2c Middlewares\Third_Party\FreeRTOS-Plus\FreeRTOS-Plus-TCP\FreeRTOS_IP.o
                0x080061d8                vReturnEthernetFrame
 .text.prvIPTask
                0x08006204      0x3cc Middlewares\Third_Party\FreeRTOS-Plus\FreeRTOS-Plus-TCP\FreeRTOS_IP.o
 .text.vIPSetDHCPTimerEnableState
                0x080065d0       0x18 Middlewares\Third_Party\FreeRTOS-Plus\FreeRTOS-Plus-TCP\FreeRTOS_IP.o
                0x080065d0                vIPSetDHCPTimerEnableState
 .text.vIPReloadDHCPTimer
                0x080065e8       0x10 Middlewares\Third_Party\FreeRTOS-Plus\FreeRTOS-Plus-TCP\FreeRTOS_IP.o
                0x080065e8                vIPReloadDHCPTimer
 .text.vIPSetDnsTimerEnableState
                0x080065f8       0x18 Middlewares\Third_Party\FreeRTOS-Plus\FreeRTOS-Plus-TCP\FreeRTOS_IP.o
                0x080065f8                vIPSetDnsTimerEnableState
 .text.xIPIsNetworkTaskReady
                0x08006610        0xc Middlewares\Third_Party\FreeRTOS-Plus\FreeRTOS-Plus-TCP\FreeRTOS_IP.o
                0x08006610                xIPIsNetworkTaskReady
 .text.uxStreamBufferGetSize
                0x0800661c       0x12 Middlewares\Third_Party\FreeRTOS-Plus\FreeRTOS-Plus-TCP\FreeRTOS_Sockets.o
 .text.pxListFindListItemWithValue
                0x0800662e       0x2a Middlewares\Third_Party\FreeRTOS-Plus\FreeRTOS-Plus-TCP\FreeRTOS_Sockets.o
 .text.prvValidSocket
                0x08006658       0x1e Middlewares\Third_Party\FreeRTOS-Plus\FreeRTOS-Plus-TCP\FreeRTOS_Sockets.o
 .text.uxStreamBufferGetSpace
                0x08006676       0x14 Middlewares\Third_Party\FreeRTOS-Plus\FreeRTOS-Plus-TCP\FreeRTOS_Sockets.o
 *fill*         0x0800668a        0x2 
 .text.vNetworkSocketsInit
                0x0800668c       0x54 Middlewares\Third_Party\FreeRTOS-Plus\FreeRTOS-Plus-TCP\FreeRTOS_Sockets.o
                0x0800668c                vNetworkSocketsInit
 .text.FreeRTOS_socket
                0x080066e0       0xfc Middlewares\Third_Party\FreeRTOS-Plus\FreeRTOS-Plus-TCP\FreeRTOS_Sockets.o
                0x080066e0                FreeRTOS_socket
 .text.FreeRTOS_recvfrom
                0x080067dc       0xee Middlewares\Third_Party\FreeRTOS-Plus\FreeRTOS-Plus-TCP\FreeRTOS_Sockets.o
                0x080067dc                FreeRTOS_recvfrom
 .text.FreeRTOS_bind
                0x080068ca       0x5a Middlewares\Third_Party\FreeRTOS-Plus\FreeRTOS-Plus-TCP\FreeRTOS_Sockets.o
                0x080068ca                FreeRTOS_bind
 .text.FreeRTOS_sendto
                0x08006924       0xde Middlewares\Third_Party\FreeRTOS-Plus\FreeRTOS-Plus-TCP\FreeRTOS_Sockets.o
                0x08006924                FreeRTOS_sendto
 *fill*         0x08006a02        0x2 
 .text.vSocketBind
                0x08006a04       0xc8 Middlewares\Third_Party\FreeRTOS-Plus\FreeRTOS-Plus-TCP\FreeRTOS_Sockets.o
                0x08006a04                vSocketBind
 .text.FreeRTOS_closesocket
                0x08006acc       0x2c Middlewares\Third_Party\FreeRTOS-Plus\FreeRTOS-Plus-TCP\FreeRTOS_Sockets.o
                0x08006acc                FreeRTOS_closesocket
 .text.vSocketClose
                0x08006af8       0xa0 Middlewares\Third_Party\FreeRTOS-Plus\FreeRTOS-Plus-TCP\FreeRTOS_Sockets.o
                0x08006af8                vSocketClose
 .text.pxUDPSocketLookup
                0x08006b98       0x28 Middlewares\Third_Party\FreeRTOS-Plus\FreeRTOS-Plus-TCP\FreeRTOS_Sockets.o
                0x08006b98                pxUDPSocketLookup
 .text.vSocketWakeUpUser
                0x08006bc0       0x34 Middlewares\Third_Party\FreeRTOS-Plus\FreeRTOS-Plus-TCP\FreeRTOS_Sockets.o
                0x08006bc0                vSocketWakeUpUser
 .text.xTCPTimerCheck
                0x08006bf4       0x88 Middlewares\Third_Party\FreeRTOS-Plus\FreeRTOS-Plus-TCP\FreeRTOS_Sockets.o
                0x08006bf4                xTCPTimerCheck
 .text.pxTCPSocketLookup
                0x08006c7c       0x40 Middlewares\Third_Party\FreeRTOS-Plus\FreeRTOS-Plus-TCP\FreeRTOS_Sockets.o
                0x08006c7c                pxTCPSocketLookup
 .text.lTCPAddRxdata
                0x08006cbc       0xda Middlewares\Third_Party\FreeRTOS-Plus\FreeRTOS-Plus-TCP\FreeRTOS_Sockets.o
                0x08006cbc                lTCPAddRxdata
 .text.FreeRTOS_tx_space
                0x08006d96       0x1c Middlewares\Third_Party\FreeRTOS-Plus\FreeRTOS-Plus-TCP\FreeRTOS_Sockets.o
                0x08006d96                FreeRTOS_tx_space
 .text.FreeRTOS_tx_size
                0x08006db2       0x16 Middlewares\Third_Party\FreeRTOS-Plus\FreeRTOS-Plus-TCP\FreeRTOS_Sockets.o
                0x08006db2                FreeRTOS_tx_size
 .text.FreeRTOS_setsockopt
                0x08006dc8      0x1c4 Middlewares\Third_Party\FreeRTOS-Plus\FreeRTOS-Plus-TCP\FreeRTOS_Sockets.o
                0x08006dc8                FreeRTOS_setsockopt
 .text.FreeRTOS_rx_size
                0x08006f8c       0x16 Middlewares\Third_Party\FreeRTOS-Plus\FreeRTOS-Plus-TCP\FreeRTOS_Sockets.o
                0x08006f8c                FreeRTOS_rx_size
 *fill*         0x08006fa2        0x2 
 .text.vSocketSelect
                0x08006fa4      0x110 Middlewares\Third_Party\FreeRTOS-Plus\FreeRTOS-Plus-TCP\FreeRTOS_Sockets.o
                0x08006fa4                vSocketSelect
 .text.FreeRTOS_SignalSocket
                0x080070b4       0x26 Middlewares\Third_Party\FreeRTOS-Plus\FreeRTOS-Plus-TCP\FreeRTOS_Sockets.o
                0x080070b4                FreeRTOS_SignalSocket
 .text.uxStreamBufferAdd
                0x080070da       0xae Middlewares\Third_Party\FreeRTOS-Plus\FreeRTOS-Plus-TCP\FreeRTOS_Stream_Buffer.o
                0x080070da                uxStreamBufferAdd
 .text.uxStreamBufferGet
                0x08007188       0x80 Middlewares\Third_Party\FreeRTOS-Plus\FreeRTOS-Plus-TCP\FreeRTOS_Stream_Buffer.o
                0x08007188                uxStreamBufferGet
 .text.prvSocketSetMSS
                0x08007208       0x2c Middlewares\Third_Party\FreeRTOS-Plus\FreeRTOS-Plus-TCP\FreeRTOS_TCP_IP.o
 .text.prvTCPCreateWindow
                0x08007234       0x2c Middlewares\Third_Party\FreeRTOS-Plus\FreeRTOS-Plus-TCP\FreeRTOS_TCP_IP.o
 .text.prvTCPNextTimeout
                0x08007260       0x7c Middlewares\Third_Party\FreeRTOS-Plus\FreeRTOS-Plus-TCP\FreeRTOS_TCP_IP.o
 .text.prvTCPReturnPacket.constprop.4
                0x080072dc      0x18c Middlewares\Third_Party\FreeRTOS-Plus\FreeRTOS-Plus-TCP\FreeRTOS_TCP_IP.o
 .text.prvTCPSendReset
                0x08007468       0x1e Middlewares\Third_Party\FreeRTOS-Plus\FreeRTOS-Plus-TCP\FreeRTOS_TCP_IP.o
 .text.prvTCPAddTxData
                0x08007486       0x54 Middlewares\Third_Party\FreeRTOS-Plus\FreeRTOS-Plus-TCP\FreeRTOS_TCP_IP.o
 .text.vTCPStateChange
                0x080074da      0x116 Middlewares\Third_Party\FreeRTOS-Plus\FreeRTOS-Plus-TCP\FreeRTOS_TCP_IP.o
                0x080074da                vTCPStateChange
 .text.prvTCPPrepareSend
                0x080075f0      0x220 Middlewares\Third_Party\FreeRTOS-Plus\FreeRTOS-Plus-TCP\FreeRTOS_TCP_IP.o
 .text.prvTCPSendRepeated
                0x08007810       0x32 Middlewares\Third_Party\FreeRTOS-Plus\FreeRTOS-Plus-TCP\FreeRTOS_TCP_IP.o
 *fill*         0x08007842        0x2 
 .text.xTCPSocketCheck
                0x08007844      0x230 Middlewares\Third_Party\FreeRTOS-Plus\FreeRTOS-Plus-TCP\FreeRTOS_TCP_IP.o
                0x08007844                xTCPSocketCheck
 .text.prvTCPHandleFin.isra.3
                0x08007a74       0xc8 Middlewares\Third_Party\FreeRTOS-Plus\FreeRTOS-Plus-TCP\FreeRTOS_TCP_IP.o
 .text.xProcessReceivedTCPPacket
                0x08007b3c      0x930 Middlewares\Third_Party\FreeRTOS-Plus\FreeRTOS-Plus-TCP\FreeRTOS_TCP_IP.o
                0x08007b3c                xProcessReceivedTCPPacket
 .text.xTCPCheckNewClient
                0x0800846c       0x40 Middlewares\Third_Party\FreeRTOS-Plus\FreeRTOS-Plus-TCP\FreeRTOS_TCP_IP.o
                0x0800846c                xTCPCheckNewClient
 .text.xTCPWindowRxFind
                0x080084ac       0x1e Middlewares\Third_Party\FreeRTOS-Plus\FreeRTOS-Plus-TCP\FreeRTOS_TCP_WIN.o
 .text.xTCPWindowPeekHead
                0x080084ca        0xe Middlewares\Third_Party\FreeRTOS-Plus\FreeRTOS-Plus-TCP\FreeRTOS_TCP_WIN.o
 .text.prvTCPWindowTxHasSpace
                0x080084d8       0x38 Middlewares\Third_Party\FreeRTOS-Plus\FreeRTOS-Plus-TCP\FreeRTOS_TCP_WIN.o
 .text.xTCPWindowGetHead
                0x08008510       0x12 Middlewares\Third_Party\FreeRTOS-Plus\FreeRTOS-Plus-TCP\FreeRTOS_TCP_WIN.o
 .text.vListInsertGeneric
                0x08008522       0x14 Middlewares\Third_Party\FreeRTOS-Plus\FreeRTOS-Plus-TCP\FreeRTOS_TCP_WIN.o
                0x08008522                vListInsertGeneric
 *fill*         0x08008536        0x2 
 .text.vTCPWindowFree
                0x08008538       0x38 Middlewares\Third_Party\FreeRTOS-Plus\FreeRTOS-Plus-TCP\FreeRTOS_TCP_WIN.o
 .text.prvTCPWindowTxCheckAck
                0x08008570       0xce Middlewares\Third_Party\FreeRTOS-Plus\FreeRTOS-Plus-TCP\FreeRTOS_TCP_WIN.o
 *fill*         0x0800863e        0x2 
 .text.xTCPWindowNew
                0x08008640       0x74 Middlewares\Third_Party\FreeRTOS-Plus\FreeRTOS-Plus-TCP\FreeRTOS_TCP_WIN.o
 .text.xTCPWindowRxEmpty
                0x080086b4       0x16 Middlewares\Third_Party\FreeRTOS-Plus\FreeRTOS-Plus-TCP\FreeRTOS_TCP_WIN.o
                0x080086b4                xTCPWindowRxEmpty
 .text.vTCPWindowDestroy
                0x080086ca       0x3a Middlewares\Third_Party\FreeRTOS-Plus\FreeRTOS-Plus-TCP\FreeRTOS_TCP_WIN.o
                0x080086ca                vTCPWindowDestroy
 .text.vTCPWindowInit
                0x08008704       0x46 Middlewares\Third_Party\FreeRTOS-Plus\FreeRTOS-Plus-TCP\FreeRTOS_TCP_WIN.o
                0x08008704                vTCPWindowInit
 *fill*         0x0800874a        0x2 
 .text.vTCPWindowCreate
                0x0800874c       0xb0 Middlewares\Third_Party\FreeRTOS-Plus\FreeRTOS-Plus-TCP\FreeRTOS_TCP_WIN.o
                0x0800874c                vTCPWindowCreate
 .text.lTCPWindowRxCheck
                0x080087fc      0x100 Middlewares\Third_Party\FreeRTOS-Plus\FreeRTOS-Plus-TCP\FreeRTOS_TCP_WIN.o
                0x080087fc                lTCPWindowRxCheck
 .text.lTCPWindowTxAdd
                0x080088fc       0xbe Middlewares\Third_Party\FreeRTOS-Plus\FreeRTOS-Plus-TCP\FreeRTOS_TCP_WIN.o
                0x080088fc                lTCPWindowTxAdd
 .text.xTCPWindowTxDone
                0x080089ba        0xc Middlewares\Third_Party\FreeRTOS-Plus\FreeRTOS-Plus-TCP\FreeRTOS_TCP_WIN.o
                0x080089ba                xTCPWindowTxDone
 .text.xTCPWindowTxHasData
                0x080089c6       0x5a Middlewares\Third_Party\FreeRTOS-Plus\FreeRTOS-Plus-TCP\FreeRTOS_TCP_WIN.o
                0x080089c6                xTCPWindowTxHasData
 .text.ulTCPWindowTxGet
                0x08008a20       0xf8 Middlewares\Third_Party\FreeRTOS-Plus\FreeRTOS-Plus-TCP\FreeRTOS_TCP_WIN.o
                0x08008a20                ulTCPWindowTxGet
 .text.ulTCPWindowTxAck
                0x08008b18       0x14 Middlewares\Third_Party\FreeRTOS-Plus\FreeRTOS-Plus-TCP\FreeRTOS_TCP_WIN.o
                0x08008b18                ulTCPWindowTxAck
 .text.ulTCPWindowTxSack
                0x08008b2c       0x5c Middlewares\Third_Party\FreeRTOS-Plus\FreeRTOS-Plus-TCP\FreeRTOS_TCP_WIN.o
                0x08008b2c                ulTCPWindowTxSack
 .text.vProcessGeneratedUDPPacket
                0x08008b88       0xb8 Middlewares\Third_Party\FreeRTOS-Plus\FreeRTOS-Plus-TCP\FreeRTOS_UDP_IP.o
                0x08008b88                vProcessGeneratedUDPPacket
 .text.xProcessReceivedUDPPacket
                0x08008c40       0x94 Middlewares\Third_Party\FreeRTOS-Plus\FreeRTOS-Plus-TCP\FreeRTOS_UDP_IP.o
                0x08008c40                xProcessReceivedUDPPacket
 .text.xNetworkBuffersInitialise
                0x08008cd4       0x84 Middlewares\Third_Party\FreeRTOS-Plus\FreeRTOS-Plus-TCP\portable\BufferManagement\BufferAllocation_2.o
                0x08008cd4                xNetworkBuffersInitialise
 .text.vReleaseNetworkBuffer
                0x08008d58        0xa Middlewares\Third_Party\FreeRTOS-Plus\FreeRTOS-Plus-TCP\portable\BufferManagement\BufferAllocation_2.o
                0x08008d58                vReleaseNetworkBuffer
 *fill*         0x08008d62        0x2 
 .text.vReleaseNetworkBufferAndDescriptor
                0x08008d64       0x48 Middlewares\Third_Party\FreeRTOS-Plus\FreeRTOS-Plus-TCP\portable\BufferManagement\BufferAllocation_2.o
                0x08008d64                vReleaseNetworkBufferAndDescriptor
 .text.pxGetNetworkBufferWithDescriptor
                0x08008dac       0x94 Middlewares\Third_Party\FreeRTOS-Plus\FreeRTOS-Plus-TCP\portable\BufferManagement\BufferAllocation_2.o
                0x08008dac                pxGetNetworkBufferWithDescriptor
 .text.vApplicationStackOverflowHook
                0x08008e40        0x2 Src\freertos.o
                0x08008e40                vApplicationStackOverflowHook
 .text.vApplicationMallocFailedHook
                0x08008e42        0x2 Src\freertos.o
                0x08008e42                vApplicationMallocFailedHook
 .text.StartDefaultTask
                0x08008e44       0x20 Src\main.o
                0x08008e44                StartDefaultTask
 .text.SystemClock_Config
                0x08008e64       0xac Src\main.o
                0x08008e64                SystemClock_Config
 .text.startup.main
                0x08008f10       0xc0 Src\main.o
                0x08008f10                main
 .text.vApplicationPingReplyHook
                0x08008fd0        0x2 Src\main.o
                0x08008fd0                vApplicationPingReplyHook
 .text.vApplicationIPNetworkEventHook
                0x08008fd2        0x2 Src\main.o
                0x08008fd2                vApplicationIPNetworkEventHook
 .text.pcApplicationHostnameHook
                0x08008fd4        0x8 Src\main.o
                0x08008fd4                pcApplicationHostnameHook
 .text.uxRand   0x08008fdc        0xc Src\main.o
                0x08008fdc                uxRand
 .text.xApplicationDNSQueryHook
                0x08008fe8       0x28 Src\main.o
                0x08008fe8                xApplicationDNSQueryHook
 .text.HAL_TIM_PeriodElapsedCallback
                0x08009010       0x14 Src\main.o
                0x08009010                HAL_TIM_PeriodElapsedCallback
 .text._Error_Handler
                0x08009024        0x2 Src\main.o
                0x08009024                _Error_Handler
 *fill*         0x08009026        0x2 
 .text.HAL_MspInit
                0x08009028       0x90 Src\stm32f4xx_hal_msp.o
                0x08009028                HAL_MspInit
 .text.HAL_InitTick
                0x080090b8       0x78 Src\stm32f4xx_hal_timebase_TIM.o
                0x080090b8                HAL_InitTick
 .text.NMI_Handler
                0x08009130        0x2 Src\stm32f4xx_it.o
                0x08009130                NMI_Handler
 .text.HardFault_Handler
                0x08009132        0x2 Src\stm32f4xx_it.o
                0x08009132                HardFault_Handler
 .text.MemManage_Handler
                0x08009134        0x2 Src\stm32f4xx_it.o
                0x08009134                MemManage_Handler
 .text.BusFault_Handler
                0x08009136        0x2 Src\stm32f4xx_it.o
                0x08009136                BusFault_Handler
 .text.UsageFault_Handler
                0x08009138        0x2 Src\stm32f4xx_it.o
                0x08009138                UsageFault_Handler
 .text.DebugMon_Handler
                0x0800913a        0x2 Src\stm32f4xx_it.o
                0x0800913a                DebugMon_Handler
 .text.SysTick_Handler
                0x0800913c        0x4 Src\stm32f4xx_it.o
                0x0800913c                SysTick_Handler
 .text.TIM1_UP_TIM10_IRQHandler
                0x08009140        0xc Src\stm32f4xx_it.o
                0x08009140                TIM1_UP_TIM10_IRQHandler
 .text.SystemInit
                0x0800914c       0x4c Src\system_stm32f4xx.o
                0x0800914c                SystemInit
 .text.Reset_Handler
                0x08009198       0x50 startup\startup_stm32f411xe.o
                0x08009198                Reset_Handler
 .text.Default_Handler
                0x080091e8        0x2 startup\startup_stm32f411xe.o
                0x080091e8                RTC_Alarm_IRQHandler
                0x080091e8                EXTI2_IRQHandler
                0x080091e8                SPI4_IRQHandler
                0x080091e8                TIM1_CC_IRQHandler
                0x080091e8                DMA2_Stream5_IRQHandler
                0x080091e8                DMA1_Stream5_IRQHandler
                0x080091e8                PVD_IRQHandler
                0x080091e8                SDIO_IRQHandler
                0x080091e8                TAMP_STAMP_IRQHandler
                0x080091e8                EXTI3_IRQHandler
                0x080091e8                I2C3_ER_IRQHandler
                0x080091e8                EXTI0_IRQHandler
                0x080091e8                I2C2_EV_IRQHandler
                0x080091e8                DMA1_Stream2_IRQHandler
                0x080091e8                FPU_IRQHandler
                0x080091e8                DMA2_Stream2_IRQHandler
                0x080091e8                SPI1_IRQHandler
                0x080091e8                TIM1_BRK_TIM9_IRQHandler
                0x080091e8                DMA2_Stream3_IRQHandler
                0x080091e8                USART6_IRQHandler
                0x080091e8                DMA2_Stream0_IRQHandler
                0x080091e8                TIM4_IRQHandler
                0x080091e8                I2C1_EV_IRQHandler
                0x080091e8                DMA1_Stream6_IRQHandler
                0x080091e8                DMA1_Stream1_IRQHandler
                0x080091e8                TIM3_IRQHandler
                0x080091e8                RCC_IRQHandler
                0x080091e8                Default_Handler
                0x080091e8                EXTI15_10_IRQHandler
                0x080091e8                ADC_IRQHandler
                0x080091e8                DMA1_Stream7_IRQHandler
                0x080091e8                SPI5_IRQHandler
                0x080091e8                TIM5_IRQHandler
                0x080091e8                DMA2_Stream7_IRQHandler
                0x080091e8                I2C3_EV_IRQHandler
                0x080091e8                EXTI9_5_IRQHandler
                0x080091e8                RTC_WKUP_IRQHandler
                0x080091e8                SPI2_IRQHandler
                0x080091e8                DMA1_Stream0_IRQHandler
                0x080091e8                EXTI4_IRQHandler
                0x080091e8                WWDG_IRQHandler
                0x080091e8                TIM2_IRQHandler
                0x080091e8                OTG_FS_WKUP_IRQHandler
                0x080091e8                TIM1_TRG_COM_TIM11_IRQHandler
                0x080091e8                EXTI1_IRQHandler
                0x080091e8                USART2_IRQHandler
                0x080091e8                I2C2_ER_IRQHandler
                0x080091e8                DMA2_Stream1_IRQHandler
                0x080091e8                FLASH_IRQHandler
                0x080091e8                DMA2_Stream4_IRQHandler
                0x080091e8                USART1_IRQHandler
                0x080091e8                SPI3_IRQHandler
                0x080091e8                DMA1_Stream4_IRQHandler
                0x080091e8                I2C1_ER_IRQHandler
                0x080091e8                DMA2_Stream6_IRQHandler
                0x080091e8                DMA1_Stream3_IRQHandler
 *fill*         0x080091ea        0x2 
 .text.__libc_init_array
                0x080091ec       0x48 c:/program files (x86)/atollic/truestudio for stm32 9.0.0/armtools/bin/../lib/gcc/arm-atollic-eabi/6.3.1/../../../../arm-atollic-eabi/lib/armv7e-m/fpu\libc_nano.a(lib_a-init.o)
                0x080091ec                __libc_init_array
 .text.malloc   0x08009234       0x10 c:/program files (x86)/atollic/truestudio for stm32 9.0.0/armtools/bin/../lib/gcc/arm-atollic-eabi/6.3.1/../../../../arm-atollic-eabi/lib/armv7e-m/fpu\libc_nano.a(lib_a-malloc.o)
                0x08009234                malloc
 .text.free     0x08009244       0x10 c:/program files (x86)/atollic/truestudio for stm32 9.0.0/armtools/bin/../lib/gcc/arm-atollic-eabi/6.3.1/../../../../arm-atollic-eabi/lib/armv7e-m/fpu\libc_nano.a(lib_a-malloc.o)
                0x08009244                free
 .text.memcmp   0x08009254       0x1e c:/program files (x86)/atollic/truestudio for stm32 9.0.0/armtools/bin/../lib/gcc/arm-atollic-eabi/6.3.1/../../../../arm-atollic-eabi/lib/armv7e-m/fpu\libc_nano.a(lib_a-memcmp.o)
                0x08009254                memcmp
 .text.memcpy   0x08009272       0x16 c:/program files (x86)/atollic/truestudio for stm32 9.0.0/armtools/bin/../lib/gcc/arm-atollic-eabi/6.3.1/../../../../arm-atollic-eabi/lib/armv7e-m/fpu\libc_nano.a(lib_a-memcpy-stub.o)
                0x08009272                memcpy
 .text.memmove  0x08009288       0x34 c:/program files (x86)/atollic/truestudio for stm32 9.0.0/armtools/bin/../lib/gcc/arm-atollic-eabi/6.3.1/../../../../arm-atollic-eabi/lib/armv7e-m/fpu\libc_nano.a(lib_a-memmove.o)
                0x08009288                memmove
 .text.memset   0x080092bc       0x10 c:/program files (x86)/atollic/truestudio for stm32 9.0.0/armtools/bin/../lib/gcc/arm-atollic-eabi/6.3.1/../../../../arm-atollic-eabi/lib/armv7e-m/fpu\libc_nano.a(lib_a-memset.o)
                0x080092bc                memset
 .text._free_r  0x080092cc       0x9c c:/program files (x86)/atollic/truestudio for stm32 9.0.0/armtools/bin/../lib/gcc/arm-atollic-eabi/6.3.1/../../../../arm-atollic-eabi/lib/armv7e-m/fpu\libc_nano.a(lib_a-nano-freer.o)
                0x080092cc                _free_r
 .text._malloc_r
                0x08009368       0xbc c:/program files (x86)/atollic/truestudio for stm32 9.0.0/armtools/bin/../lib/gcc/arm-atollic-eabi/6.3.1/../../../../arm-atollic-eabi/lib/armv7e-m/fpu\libc_nano.a(lib_a-nano-mallocr.o)
                0x08009368                _malloc_r
 .text.rand     0x08009424       0x74 c:/program files (x86)/atollic/truestudio for stm32 9.0.0/armtools/bin/../lib/gcc/arm-atollic-eabi/6.3.1/../../../../arm-atollic-eabi/lib/armv7e-m/fpu\libc_nano.a(lib_a-rand.o)
                0x08009424                rand
 .text._sbrk_r  0x08009498       0x20 c:/program files (x86)/atollic/truestudio for stm32 9.0.0/armtools/bin/../lib/gcc/arm-atollic-eabi/6.3.1/../../../../arm-atollic-eabi/lib/armv7e-m/fpu\libc_nano.a(lib_a-sbrkr.o)
                0x08009498                _sbrk_r
 .text.strcasecmp
                0x080094b8       0x3c c:/program files (x86)/atollic/truestudio for stm32 9.0.0/armtools/bin/../lib/gcc/arm-atollic-eabi/6.3.1/../../../../arm-atollic-eabi/lib/armv7e-m/fpu\libc_nano.a(lib_a-strcasecmp.o)
                0x080094b8                strcasecmp
 .text.strncmp  0x080094f4       0x24 c:/program files (x86)/atollic/truestudio for stm32 9.0.0/armtools/bin/../lib/gcc/arm-atollic-eabi/6.3.1/../../../../arm-atollic-eabi/lib/armv7e-m/fpu\libc_nano.a(lib_a-strncmp.o)
                0x080094f4                strncmp
 .text.strncpy  0x08009518       0x2a c:/program files (x86)/atollic/truestudio for stm32 9.0.0/armtools/bin/../lib/gcc/arm-atollic-eabi/6.3.1/../../../../arm-atollic-eabi/lib/armv7e-m/fpu\libc_nano.a(lib_a-strncpy.o)
                0x08009518                strncpy
 *fill*         0x08009542        0x2 
 .text.__locale_ctype_ptr
                0x08009544       0x1c c:/program files (x86)/atollic/truestudio for stm32 9.0.0/armtools/bin/../lib/gcc/arm-atollic-eabi/6.3.1/../../../../arm-atollic-eabi/lib/armv7e-m/fpu\libc_nano.a(lib_a-locale.o)
                0x08009544                __locale_ctype_ptr
 .text.__ascii_mbtowc
                0x08009560       0x24 c:/program files (x86)/atollic/truestudio for stm32 9.0.0/armtools/bin/../lib/gcc/arm-atollic-eabi/6.3.1/../../../../arm-atollic-eabi/lib/armv7e-m/fpu\libc_nano.a(lib_a-mbtowc_r.o)
                0x08009560                __ascii_mbtowc
 .text.__malloc_lock
                0x08009584        0x2 c:/program files (x86)/atollic/truestudio for stm32 9.0.0/armtools/bin/../lib/gcc/arm-atollic-eabi/6.3.1/../../../../arm-atollic-eabi/lib/armv7e-m/fpu\libc_nano.a(lib_a-mlock.o)
                0x08009584                __malloc_lock
 .text.__malloc_unlock
                0x08009586        0x2 c:/program files (x86)/atollic/truestudio for stm32 9.0.0/armtools/bin/../lib/gcc/arm-atollic-eabi/6.3.1/../../../../arm-atollic-eabi/lib/armv7e-m/fpu\libc_nano.a(lib_a-mlock.o)
                0x08009586                __malloc_unlock
 .text.__ascii_wctomb
                0x08009588       0x1a c:/program files (x86)/atollic/truestudio for stm32 9.0.0/armtools/bin/../lib/gcc/arm-atollic-eabi/6.3.1/../../../../arm-atollic-eabi/lib/armv7e-m/fpu\libc_nano.a(lib_a-wctomb_r.o)
                0x08009588                __ascii_wctomb
 *fill*         0x080095a2        0x2 
 .text._sbrk    0x080095a4       0x1c c:/program files (x86)/atollic/truestudio for stm32 9.0.0/armtools/bin/../lib/gcc/arm-atollic-eabi/6.3.1/../../../../arm-atollic-eabi/lib/armv7e-m/fpu\libnosys.a(sbrk.o)
                0x080095a4                _sbrk
 *(.glue_7)
 .glue_7        0x080095c0        0x0 linker stubs
 *(.glue_7t)
 .glue_7t       0x080095c0        0x0 linker stubs
 *(.eh_frame)
 .eh_frame      0x080095c0        0x0 c:/program files (x86)/atollic/truestudio for stm32 9.0.0/armtools/bin/../lib/gcc/arm-atollic-eabi/6.3.1/armv7e-m/fpu/crtbegin.o
 *(.init)
 .init          0x080095c0        0x4 c:/program files (x86)/atollic/truestudio for stm32 9.0.0/armtools/bin/../lib/gcc/arm-atollic-eabi/6.3.1/armv7e-m/fpu/crti.o
                0x080095c0                _init
 .init          0x080095c4        0x8 c:/program files (x86)/atollic/truestudio for stm32 9.0.0/armtools/bin/../lib/gcc/arm-atollic-eabi/6.3.1/armv7e-m/fpu/crtn.o
 *(.fini)
 .fini          0x080095cc        0x4 c:/program files (x86)/atollic/truestudio for stm32 9.0.0/armtools/bin/../lib/gcc/arm-atollic-eabi/6.3.1/armv7e-m/fpu/crti.o
                0x080095cc                _fini
 .fini          0x080095d0        0x8 c:/program files (x86)/atollic/truestudio for stm32 9.0.0/armtools/bin/../lib/gcc/arm-atollic-eabi/6.3.1/armv7e-m/fpu/crtn.o
                0x080095d8                . = ALIGN (0x4)
                0x080095d8                _etext = .

.vfp11_veneer   0x080095d8        0x0
 .vfp11_veneer  0x080095d8        0x0 linker stubs

.v4_bx          0x080095d8        0x0
 .v4_bx         0x080095d8        0x0 linker stubs

.iplt           0x080095d8        0x0
 .iplt          0x080095d8        0x0 c:/program files (x86)/atollic/truestudio for stm32 9.0.0/armtools/bin/../lib/gcc/arm-atollic-eabi/6.3.1/armv7e-m/fpu/crtbegin.o

.rodata         0x080095d8      0x314
                0x080095d8                . = ALIGN (0x4)
 *(.rodata)
 .rodata        0x080095d8       0x14 Src\main.o
 *(.rodata*)
 .rodata.CSWTCH.39
                0x080095ec        0x4 Middlewares\ST\STM32_USB_Device_Library\App\Src\usbd_conf.o
 .rodata.USBD_LL_Init.str1.1
                0x080095f0       0x3f Middlewares\ST\STM32_USB_Device_Library\App\Src\usbd_conf.o
 .rodata.USBD_FS_ConfigStrDescriptor.str1.1
                0x0800962f       0x10 Middlewares\ST\STM32_USB_Device_Library\App\Src\usbd_desc.o
 .rodata.USBD_FS_InterfaceStrDescriptor.str1.1
                0x0800963f       0x13 Middlewares\ST\STM32_USB_Device_Library\App\Src\usbd_desc.o
 .rodata.USBD_FS_ManufacturerStrDescriptor.str1.1
                0x08009652        0x6 Middlewares\ST\STM32_USB_Device_Library\App\Src\usbd_desc.o
 .rodata.USBD_FS_ProductStrDescriptor.str1.1
                0x08009658        0xf Middlewares\ST\STM32_USB_Device_Library\App\Src\usbd_desc.o
 .rodata.USBD_FS_SerialStrDescriptor.str1.1
                0x08009667        0xd Middlewares\ST\STM32_USB_Device_Library\App\Src\usbd_desc.o
 .rodata.OID_GEN_SUPPORTED
                0x08009674       0x64 Middlewares\ST\STM32_USB_Device_Library\App\Src\usbd_rndis_if.o
                0x08009674                OID_GEN_SUPPORTED
 .rodata.nome.11034
                0x080096d8        0xf Middlewares\ST\STM32_USB_Device_Library\App\Src\usbd_rndis_if.o
 *fill*         0x080096e7        0x1 
 .rodata.response
                0x080096e8       0x20 Middlewares\ST\STM32_USB_Device_Library\App\Src\usbd_rndis_if.o
                0x080096e8                response
 .rodata.xNetworkInterfaceInitialise.str1.1
                0x08009708        0x5 Middlewares\ST\STM32_USB_Device_Library\App\Src\usbd_rndis_if.o
 .rodata.vTaskStartScheduler.str1.1
                0x0800970d        0x5 Middlewares\Third_Party\FreeRTOS\Source\tasks.o
 .rodata.xDefaultPartARPPacketHeader
                0x08009712       0x26 Middlewares\Third_Party\FreeRTOS-Plus\FreeRTOS-Plus-TCP\FreeRTOS_ARP.o
 .rodata.ucDHCPDiscoverOptions.7275
                0x08009738       0x11 Middlewares\Third_Party\FreeRTOS-Plus\FreeRTOS-Plus-TCP\FreeRTOS_DHCP.o
 .rodata.ucDHCPRequestOptions.7268
                0x08009749       0x18 Middlewares\Third_Party\FreeRTOS-Plus\FreeRTOS-Plus-TCP\FreeRTOS_DHCP.o
 .rodata.xLLMNR_MacAdress
                0x08009761        0x6 Middlewares\Third_Party\FreeRTOS-Plus\FreeRTOS-Plus-TCP\FreeRTOS_DNS.o
                0x08009761                xLLMNR_MacAdress
 .rodata.FreeRTOS_IPInit.str1.1
                0x08009767       0x10 Middlewares\Third_Party\FreeRTOS-Plus\FreeRTOS-Plus-TCP\FreeRTOS_IP.o
 .rodata.xBroadcastMACAddress
                0x08009777        0x6 Middlewares\Third_Party\FreeRTOS-Plus\FreeRTOS-Plus-TCP\FreeRTOS_IP.o
                0x08009777                xBroadcastMACAddress
 *fill*         0x0800977d        0x3 
 .rodata.xNetworkDownEvent.8072
                0x08009780        0x8 Middlewares\Third_Party\FreeRTOS-Plus\FreeRTOS-Plus-TCP\FreeRTOS_IP.o
 .rodata.xNetworkDownEvent.8077
                0x08009788        0x8 Middlewares\Third_Party\FreeRTOS-Plus\FreeRTOS-Plus-TCP\FreeRTOS_IP.o
 .rodata.xBufferAllocFixedSize
                0x08009790        0x4 Middlewares\Third_Party\FreeRTOS-Plus\FreeRTOS-Plus-TCP\portable\BufferManagement\BufferAllocation_2.o
                0x08009790                xBufferAllocFixedSize
 .rodata.xNetworkBuffersInitialise.str1.1
                0x08009794        0xa Middlewares\Third_Party\FreeRTOS-Plus\FreeRTOS-Plus-TCP\portable\BufferManagement\BufferAllocation_2.o
 .rodata.pcApplicationHostnameHook.str1.1
                0x0800979e        0x9 Src\main.o
 .rodata.str1.1
                0x080097a7        0xc Src\main.o
 .rodata.ucDNSServerAddress
                0x080097b3        0x4 Src\main.o
 .rodata.ucGatewayAddress
                0x080097b7        0x4 Src\main.o
 .rodata.ucIPAddress
                0x080097bb        0x4 Src\main.o
 .rodata.ucNetMask
                0x080097bf        0x4 Src\main.o
 .rodata.xApplicationDNSQueryHook.str1.1
                0x080097c3        0x6 Src\main.o
 .rodata.AHBPrescTable
                0x080097c9       0x10 Src\system_stm32f4xx.o
                0x080097c9                AHBPrescTable
 .rodata.APBPrescTable
                0x080097d9        0x8 Src\system_stm32f4xx.o
                0x080097d9                APBPrescTable
 .rodata._setlocale_r.str1.1
                0x080097e1        0x6 c:/program files (x86)/atollic/truestudio for stm32 9.0.0/armtools/bin/../lib/gcc/arm-atollic-eabi/6.3.1/../../../../arm-atollic-eabi/lib/armv7e-m/fpu\libc_nano.a(lib_a-locale.o)
                                  0x9 (size before relaxing)
 .rodata.str1.1
                0x080097e7        0x2 c:/program files (x86)/atollic/truestudio for stm32 9.0.0/armtools/bin/../lib/gcc/arm-atollic-eabi/6.3.1/../../../../arm-atollic-eabi/lib/armv7e-m/fpu\libc_nano.a(lib_a-locale.o)
 .rodata._ctype_
                0x080097e9      0x101 c:/program files (x86)/atollic/truestudio for stm32 9.0.0/armtools/bin/../lib/gcc/arm-atollic-eabi/6.3.1/../../../../arm-atollic-eabi/lib/armv7e-m/fpu\libc_nano.a(lib_a-ctype_.o)
                0x080097e9                _ctype_
                0x080098ec                . = ALIGN (0x4)
 *fill*         0x080098ea        0x2 

.ARM.extab
 *(.ARM.extab* .gnu.linkonce.armextab.*)

.ARM            0x080098ec        0x8
                0x080098ec                __exidx_start = .
 *(.ARM.exidx*)
 .ARM.exidx     0x080098ec        0x8 c:/program files (x86)/atollic/truestudio for stm32 9.0.0/armtools/bin/../lib/gcc/arm-atollic-eabi/6.3.1/armv7e-m/fpu\libgcc.a(_udivmoddi4.o)
                0x080098f4                __exidx_end = .

.rel.dyn        0x080098f4        0x0
 .rel.iplt      0x080098f4        0x0 c:/program files (x86)/atollic/truestudio for stm32 9.0.0/armtools/bin/../lib/gcc/arm-atollic-eabi/6.3.1/armv7e-m/fpu/crtbegin.o

.preinit_array  0x080098f4        0x0
                0x080098f4                PROVIDE (__preinit_array_start, .)
 *(.preinit_array*)
                0x080098f4                PROVIDE (__preinit_array_end, .)

.init_array     0x080098f4        0x4
                0x080098f4                PROVIDE (__init_array_start, .)
 *(SORT(.init_array.*))
 *(.init_array*)
 .init_array    0x080098f4        0x4 c:/program files (x86)/atollic/truestudio for stm32 9.0.0/armtools/bin/../lib/gcc/arm-atollic-eabi/6.3.1/armv7e-m/fpu/crtbegin.o
                0x080098f8                PROVIDE (__init_array_end, .)

.fini_array     0x080098f8        0x4
                [!provide]                PROVIDE (__fini_array_start, .)
 *(SORT(.fini_array.*))
 *(.fini_array*)
 .fini_array    0x080098f8        0x4 c:/program files (x86)/atollic/truestudio for stm32 9.0.0/armtools/bin/../lib/gcc/arm-atollic-eabi/6.3.1/armv7e-m/fpu/crtbegin.o
                [!provide]                PROVIDE (__fini_array_end, .)
                0x080098fc                _sidata = LOADADDR (.data)

.data           0x20000000      0x3a4 load address 0x080098fc
                0x20000000                . = ALIGN (0x4)
                0x20000000                _sdata = .
 *(.data)
 *(.data*)
 .data.uwTickFreq
                0x20000000        0x1 Drivers\STM32F4xx_HAL_Driver\Src\stm32f4xx_hal.o
                0x20000000                uwTickFreq
 *fill*         0x20000001        0x3 
 .data.FS_Desc  0x20000004       0x1c Middlewares\ST\STM32_USB_Device_Library\App\Src\usbd_desc.o
                0x20000004                FS_Desc
 .data.USBD_FS_DeviceDesc
                0x20000020       0x12 Middlewares\ST\STM32_USB_Device_Library\App\Src\usbd_desc.o
                0x20000020                USBD_FS_DeviceDesc
 *fill*         0x20000032        0x2 
 .data.USBD_LangIDDesc
                0x20000034        0x4 Middlewares\ST\STM32_USB_Device_Library\App\Src\usbd_desc.o
                0x20000034                USBD_LangIDDesc
 .data.USBD_RNDIS_Interface_fops_FS
                0x20000038       0x10 Middlewares\ST\STM32_USB_Device_Library\App\Src\usbd_rndis_if.o
                0x20000038                USBD_RNDIS_Interface_fops_FS
 .data.rndis_state
                0x20000048        0x1 Middlewares\ST\STM32_USB_Device_Library\App\Src\usbd_rndis_if.o
 *fill*         0x20000049        0x3 
 .data.USBD_COMPOSITE
                0x2000004c       0x38 Middlewares\ST\STM32_USB_Device_Library\Class\Composite\Src\usbd_composite.o
                0x2000004c                USBD_COMPOSITE
 .data.USBD_COMPOSITE_CfgFSDesc
                0x20000084        0x9 Middlewares\ST\STM32_USB_Device_Library\Class\Composite\Src\usbd_composite.o
                0x20000084                USBD_COMPOSITE_CfgFSDesc
 *fill*         0x2000008d        0x3 
 .data.USBD_COMPOSITE_DeviceQualifierDesc
                0x20000090        0xa Middlewares\ST\STM32_USB_Device_Library\Class\Composite\Src\usbd_composite.o
 *fill*         0x2000009a        0x2 
 .data.USBD_COMPOSITE_IfcAssocDesc
                0x2000009c        0x8 Middlewares\ST\STM32_USB_Device_Library\Class\Composite\Src\usbd_composite.o
                0x2000009c                USBD_COMPOSITE_IfcAssocDesc
 .data.inEP     0x200000a4        0x1 Middlewares\ST\STM32_USB_Device_Library\Class\Composite\Src\usbd_composite.o
 .data.outEP    0x200000a5        0x1 Middlewares\ST\STM32_USB_Device_Library\Class\Composite\Src\usbd_composite.o
 *fill*         0x200000a6        0x2 
 .data.USBD_RNDIS
                0x200000a8       0x38 Middlewares\ST\STM32_USB_Device_Library\Class\RNDIS\Src\usbd_rndis.o
                0x200000a8                USBD_RNDIS
 .data.USBD_RNDIS_CfgFSDesc
                0x200000e0       0x3e Middlewares\ST\STM32_USB_Device_Library\Class\RNDIS\Src\usbd_rndis.o
                0x200000e0                USBD_RNDIS_CfgFSDesc
 *fill*         0x2000011e        0x2 
 .data.USBD_RNDIS_CfgHSDesc
                0x20000120       0x3e Middlewares\ST\STM32_USB_Device_Library\Class\RNDIS\Src\usbd_rndis.o
                0x20000120                USBD_RNDIS_CfgHSDesc
 *fill*         0x2000015e        0x2 
 .data.USBD_RNDIS_DeviceQualifierDesc
                0x20000160        0xa Middlewares\ST\STM32_USB_Device_Library\Class\RNDIS\Src\usbd_rndis.o
 *fill*         0x2000016a        0x2 
 .data.USBD_RNDIS_OtherSpeedCfgDesc
                0x2000016c       0x3e Middlewares\ST\STM32_USB_Device_Library\Class\RNDIS\Src\usbd_rndis.o
                0x2000016c                USBD_RNDIS_OtherSpeedCfgDesc
 *fill*         0x200001aa        0x2 
 .data.uxCriticalNesting
                0x200001ac        0x4 Middlewares\Third_Party\FreeRTOS\Source\portable\GCC\ARM_CM4F\port.o
 .data.xDefaultPartUDPPacketHeader
                0x200001b0       0x18 Middlewares\Third_Party\FreeRTOS-Plus\FreeRTOS-Plus-TCP\FreeRTOS_UDP_IP.o
                0x200001b0                xDefaultPartUDPPacketHeader
 .data.ucMACAddress
                0x200001c8        0x6 Src\main.o
 *fill*         0x200001ce        0x2 
 .data.SystemCoreClock
                0x200001d0        0x4 Src\system_stm32f4xx.o
                0x200001d0                SystemCoreClock
 .data._impure_ptr
                0x200001d4        0x4 c:/program files (x86)/atollic/truestudio for stm32 9.0.0/armtools/bin/../lib/gcc/arm-atollic-eabi/6.3.1/../../../../arm-atollic-eabi/lib/armv7e-m/fpu\libc_nano.a(lib_a-impure.o)
                0x200001d4                _impure_ptr
 .data.impure_data
                0x200001d8       0x60 c:/program files (x86)/atollic/truestudio for stm32 9.0.0/armtools/bin/../lib/gcc/arm-atollic-eabi/6.3.1/../../../../arm-atollic-eabi/lib/armv7e-m/fpu\libc_nano.a(lib_a-impure.o)
 .data.__global_locale
                0x20000238      0x16c c:/program files (x86)/atollic/truestudio for stm32 9.0.0/armtools/bin/../lib/gcc/arm-atollic-eabi/6.3.1/../../../../arm-atollic-eabi/lib/armv7e-m/fpu\libc_nano.a(lib_a-locale.o)
                0x20000238                __global_locale
                0x200003a4                . = ALIGN (0x4)
                0x200003a4                _edata = .

.igot.plt       0x200003a4        0x0 load address 0x08009ca0
 .igot.plt      0x200003a4        0x0 c:/program files (x86)/atollic/truestudio for stm32 9.0.0/armtools/bin/../lib/gcc/arm-atollic-eabi/6.3.1/armv7e-m/fpu/crtbegin.o
                0x200003a4                . = ALIGN (0x4)

.bss            0x200003a8     0x61c8 load address 0x08009ca0
                0x200003a8                _sbss = .
                0x200003a8                __bss_start__ = _sbss
 *(.bss)
 .bss           0x200003a8       0x1c c:/program files (x86)/atollic/truestudio for stm32 9.0.0/armtools/bin/../lib/gcc/arm-atollic-eabi/6.3.1/armv7e-m/fpu/crtbegin.o
 *(.bss*)
 .bss.UserRxBufferFS
                0x200003c4      0x800 Middlewares\ST\STM32_USB_Device_Library\App\Src\usbd_rndis_if.o
 .bss.UserRxBufferFS_Temp
                0x20000bc4       0x40 Middlewares\ST\STM32_USB_Device_Library\App\Src\usbd_rndis_if.o
 .bss.UserRxSize
                0x20000c04        0x2 Middlewares\ST\STM32_USB_Device_Library\App\Src\usbd_rndis_if.o
                0x20000c04                UserRxSize
 .bss.len.11074
                0x20000c06        0x2 Middlewares\ST\STM32_USB_Device_Library\App\Src\usbd_rndis_if.o
 .bss.rndis_data.11035
                0x20000c08       0x24 Middlewares\ST\STM32_USB_Device_Library\App\Src\usbd_rndis_if.o
 *fill*         0x20000c2c        0x4 
 .bss.rndis_oid_gen_rcv_ok
                0x20000c30        0x8 Middlewares\ST\STM32_USB_Device_Library\App\Src\usbd_rndis_if.o
 .bss.rndis_oid_gen_xmit_ok
                0x20000c38        0x8 Middlewares\ST\STM32_USB_Device_Library\App\Src\usbd_rndis_if.o
 .bss.xEMACTaskHandle
                0x20000c40        0x4 Middlewares\ST\STM32_USB_Device_Library\App\Src\usbd_rndis_if.o
 .bss.descriptor
                0x20000c44      0x400 Middlewares\ST\STM32_USB_Device_Library\Class\Composite\Src\usbd_composite.o
 .bss.descriptor_size
                0x20001044        0x2 Middlewares\ST\STM32_USB_Device_Library\Class\Composite\Src\usbd_composite.o
 .bss.itf_num   0x20001046        0x1 Middlewares\ST\STM32_USB_Device_Library\Class\Composite\Src\usbd_composite.o
 .bss.usbd_composite_pClass_count
                0x20001047        0x1 Middlewares\ST\STM32_USB_Device_Library\Class\Composite\Src\usbd_composite.o
                0x20001047                usbd_composite_pClass_count
 .bss.ifalt.9717
                0x20001048        0x1 Middlewares\ST\STM32_USB_Device_Library\Class\RNDIS\Src\usbd_rndis.o
 .bss.cfgidx.9665
                0x20001049        0x1 Middlewares\ST\STM32_USB_Device_Library\Core\Src\usbd_ctlreq.o
 .bss.ucMaxSysCallPriority
                0x2000104a        0x1 Middlewares\Third_Party\FreeRTOS\Source\portable\GCC\ARM_CM4F\port.o
 *fill*         0x2000104b        0x1 
 .bss.ulMaxPRIGROUPValue
                0x2000104c        0x4 Middlewares\Third_Party\FreeRTOS\Source\portable\GCC\ARM_CM4F\port.o
 .bss.pxEnd     0x20001050        0x4 Middlewares\Third_Party\FreeRTOS\Source\portable\MemMang\heap_4.o
 .bss.ucHeap    0x20001054     0x3c00 Middlewares\Third_Party\FreeRTOS\Source\portable\MemMang\heap_4.o
 .bss.xBlockAllocatedBit
                0x20004c54        0x4 Middlewares\Third_Party\FreeRTOS\Source\portable\MemMang\heap_4.o
 .bss.xFreeBytesRemaining
                0x20004c58        0x4 Middlewares\Third_Party\FreeRTOS\Source\portable\MemMang\heap_4.o
 .bss.xMinimumEverFreeBytesRemaining
                0x20004c5c        0x4 Middlewares\Third_Party\FreeRTOS\Source\portable\MemMang\heap_4.o
 .bss.xStart    0x20004c60        0x8 Middlewares\Third_Party\FreeRTOS\Source\portable\MemMang\heap_4.o
 .bss.pxCurrentTCB
                0x20004c68        0x4 Middlewares\Third_Party\FreeRTOS\Source\tasks.o
                0x20004c68                pxCurrentTCB
 .bss.pxDelayedTaskList
                0x20004c6c        0x4 Middlewares\Third_Party\FreeRTOS\Source\tasks.o
 .bss.pxOverflowDelayedTaskList
                0x20004c70        0x4 Middlewares\Third_Party\FreeRTOS\Source\tasks.o
 .bss.pxReadyTasksLists
                0x20004c74       0x8c Middlewares\Third_Party\FreeRTOS\Source\tasks.o
 .bss.uxCurrentNumberOfTasks
                0x20004d00        0x4 Middlewares\Third_Party\FreeRTOS\Source\tasks.o
 .bss.uxDeletedTasksWaitingCleanUp
                0x20004d04        0x4 Middlewares\Third_Party\FreeRTOS\Source\tasks.o
 .bss.uxPendedTicks
                0x20004d08        0x4 Middlewares\Third_Party\FreeRTOS\Source\tasks.o
 .bss.uxSchedulerSuspended
                0x20004d0c        0x4 Middlewares\Third_Party\FreeRTOS\Source\tasks.o
 .bss.uxTaskNumber
                0x20004d10        0x4 Middlewares\Third_Party\FreeRTOS\Source\tasks.o
 .bss.uxTopReadyPriority
                0x20004d14        0x4 Middlewares\Third_Party\FreeRTOS\Source\tasks.o
 .bss.xDelayedTaskList1
                0x20004d18       0x14 Middlewares\Third_Party\FreeRTOS\Source\tasks.o
 .bss.xDelayedTaskList2
                0x20004d2c       0x14 Middlewares\Third_Party\FreeRTOS\Source\tasks.o
 .bss.xIdleTaskHandle
                0x20004d40        0x4 Middlewares\Third_Party\FreeRTOS\Source\tasks.o
 .bss.xNextTaskUnblockTime
                0x20004d44        0x4 Middlewares\Third_Party\FreeRTOS\Source\tasks.o
 .bss.xNumOfOverflows
                0x20004d48        0x4 Middlewares\Third_Party\FreeRTOS\Source\tasks.o
 .bss.xPendingReadyList
                0x20004d4c       0x14 Middlewares\Third_Party\FreeRTOS\Source\tasks.o
 .bss.xSchedulerRunning
                0x20004d60        0x4 Middlewares\Third_Party\FreeRTOS\Source\tasks.o
 .bss.xSuspendedTaskList
                0x20004d64       0x14 Middlewares\Third_Party\FreeRTOS\Source\tasks.o
 .bss.xTasksWaitingTermination
                0x20004d78       0x14 Middlewares\Third_Party\FreeRTOS\Source\tasks.o
 .bss.xTickCount
                0x20004d8c        0x4 Middlewares\Third_Party\FreeRTOS\Source\tasks.o
 .bss.xYieldPending
                0x20004d90        0x4 Middlewares\Third_Party\FreeRTOS\Source\tasks.o
 .bss.xARPCache
                0x20004d94       0x48 Middlewares\Third_Party\FreeRTOS-Plus\FreeRTOS-Plus-TCP\FreeRTOS_ARP.o
 .bss.xLastGratuitousARPTime
                0x20004ddc        0x4 Middlewares\Third_Party\FreeRTOS-Plus\FreeRTOS-Plus-TCP\FreeRTOS_ARP.o
 .bss.xDHCPData
                0x20004de0       0x24 Middlewares\Third_Party\FreeRTOS-Plus\FreeRTOS-Plus-TCP\FreeRTOS_DHCP.o
 .bss.xCallbackList
                0x20004e04       0x14 Middlewares\Third_Party\FreeRTOS-Plus\FreeRTOS-Plus-TCP\FreeRTOS_DNS.o
 .bss.xDNSCache
                0x20004e18       0x60 Middlewares\Third_Party\FreeRTOS-Plus\FreeRTOS-Plus-TCP\FreeRTOS_DNS.o
 .bss.xFreeEntry.7362
                0x20004e78        0x4 Middlewares\Third_Party\FreeRTOS-Plus\FreeRTOS-Plus-TCP\FreeRTOS_DNS.o
 .bss.usPacketIdentifier
                0x20004e7c        0x2 Middlewares\Third_Party\FreeRTOS-Plus\FreeRTOS-Plus-TCP\FreeRTOS_IP.o
                0x20004e7c                usPacketIdentifier
 *fill*         0x20004e7e        0x2 
 .bss.xARPTimer
                0x20004e80       0x14 Middlewares\Third_Party\FreeRTOS-Plus\FreeRTOS-Plus-TCP\FreeRTOS_IP.o
 .bss.xCallEventHook.8158
                0x20004e94        0x4 Middlewares\Third_Party\FreeRTOS-Plus\FreeRTOS-Plus-TCP\FreeRTOS_IP.o
 .bss.xDHCPTimer
                0x20004e98       0x14 Middlewares\Third_Party\FreeRTOS-Plus\FreeRTOS-Plus-TCP\FreeRTOS_IP.o
 .bss.xDNSTimer
                0x20004eac       0x14 Middlewares\Third_Party\FreeRTOS-Plus\FreeRTOS-Plus-TCP\FreeRTOS_IP.o
 .bss.xDefaultAddressing
                0x20004ec0       0x14 Middlewares\Third_Party\FreeRTOS-Plus\FreeRTOS-Plus-TCP\FreeRTOS_IP.o
                0x20004ec0                xDefaultAddressing
 .bss.xIPTaskHandle
                0x20004ed4        0x4 Middlewares\Third_Party\FreeRTOS-Plus\FreeRTOS-Plus-TCP\FreeRTOS_IP.o
 .bss.xIPTaskInitialised
                0x20004ed8        0x4 Middlewares\Third_Party\FreeRTOS-Plus\FreeRTOS-Plus-TCP\FreeRTOS_IP.o
 .bss.xNetworkAddressing
                0x20004edc       0x14 Middlewares\Third_Party\FreeRTOS-Plus\FreeRTOS-Plus-TCP\FreeRTOS_IP.o
                0x20004edc                xNetworkAddressing
 .bss.xNetworkDownEventPending
                0x20004ef0        0x4 Middlewares\Third_Party\FreeRTOS-Plus\FreeRTOS-Plus-TCP\FreeRTOS_IP.o
 .bss.xNetworkEventQueue
                0x20004ef4        0x4 Middlewares\Third_Party\FreeRTOS-Plus\FreeRTOS-Plus-TCP\FreeRTOS_IP.o
                0x20004ef4                xNetworkEventQueue
 .bss.xNetworkUp
                0x20004ef8        0x4 Middlewares\Third_Party\FreeRTOS-Plus\FreeRTOS-Plus-TCP\FreeRTOS_IP.o
 .bss.xProcessedTCPMessage
                0x20004efc        0x4 Middlewares\Third_Party\FreeRTOS-Plus\FreeRTOS-Plus-TCP\FreeRTOS_IP.o
 .bss.xStart.8051
                0x20004f00        0x4 Middlewares\Third_Party\FreeRTOS-Plus\FreeRTOS-Plus-TCP\FreeRTOS_IP.o
 .bss.xTCPTimer
                0x20004f04       0x14 Middlewares\Third_Party\FreeRTOS-Plus\FreeRTOS-Plus-TCP\FreeRTOS_IP.o
 .bss.usNextPortToUse
                0x20004f18        0x4 Middlewares\Third_Party\FreeRTOS-Plus\FreeRTOS-Plus-TCP\FreeRTOS_Sockets.o
 .bss.xLastTime.8264
                0x20004f1c        0x4 Middlewares\Third_Party\FreeRTOS-Plus\FreeRTOS-Plus-TCP\FreeRTOS_Sockets.o
 .bss.ulNextInitialSequenceNumber
                0x20004f20        0x4 Middlewares\Third_Party\FreeRTOS-Plus\FreeRTOS-Plus-TCP\FreeRTOS_TCP_IP.o
                0x20004f20                ulNextInitialSequenceNumber
 .bss.xSegmentList
                0x20004f24       0x14 Middlewares\Third_Party\FreeRTOS-Plus\FreeRTOS-Plus-TCP\FreeRTOS_TCP_WIN.o
 .bss.xTCPSegments
                0x20004f38        0x4 Middlewares\Third_Party\FreeRTOS-Plus\FreeRTOS-Plus-TCP\FreeRTOS_TCP_WIN.o
 .bss.uxMinimumFreeNetworkBuffers
                0x20004f3c        0x4 Middlewares\Third_Party\FreeRTOS-Plus\FreeRTOS-Plus-TCP\portable\BufferManagement\BufferAllocation_2.o
 .bss.xFreeBuffersList
                0x20004f40       0x14 Middlewares\Third_Party\FreeRTOS-Plus\FreeRTOS-Plus-TCP\portable\BufferManagement\BufferAllocation_2.o
 .bss.xNetworkBufferDescriptors
                0x20004f54      0x384 Middlewares\Third_Party\FreeRTOS-Plus\FreeRTOS-Plus-TCP\portable\BufferManagement\BufferAllocation_2.o
 .bss.xNetworkBufferSemaphore
                0x200052d8        0x4 Middlewares\Third_Party\FreeRTOS-Plus\FreeRTOS-Plus-TCP\portable\BufferManagement\BufferAllocation_2.o
 .bss.__malloc_free_list
                0x200052dc        0x4 c:/program files (x86)/atollic/truestudio for stm32 9.0.0/armtools/bin/../lib/gcc/arm-atollic-eabi/6.3.1/../../../../arm-atollic-eabi/lib/armv7e-m/fpu\libc_nano.a(lib_a-nano-mallocr.o)
                0x200052dc                __malloc_free_list
 .bss.__malloc_sbrk_start
                0x200052e0        0x4 c:/program files (x86)/atollic/truestudio for stm32 9.0.0/armtools/bin/../lib/gcc/arm-atollic-eabi/6.3.1/../../../../arm-atollic-eabi/lib/armv7e-m/fpu\libc_nano.a(lib_a-nano-mallocr.o)
                0x200052e0                __malloc_sbrk_start
 .bss.heap_end.5239
                0x200052e4        0x4 c:/program files (x86)/atollic/truestudio for stm32 9.0.0/armtools/bin/../lib/gcc/arm-atollic-eabi/6.3.1/../../../../arm-atollic-eabi/lib/armv7e-m/fpu\libnosys.a(sbrk.o)
 *(COMMON)
 COMMON         0x200052e8        0x4 Drivers\STM32F4xx_HAL_Driver\Src\stm32f4xx_hal.o
                0x200052e8                uwTick
 COMMON         0x200052ec      0x224 Middlewares\ST\STM32_USB_Device_Library\App\Src\usb_device.o
                0x200052ec                hUsbDeviceFS
 COMMON         0x20005510      0x3f0 Middlewares\ST\STM32_USB_Device_Library\App\Src\usbd_conf.o
                0x20005510                hpcd_USB_OTG_FS
 COMMON         0x20005900      0x200 Middlewares\ST\STM32_USB_Device_Library\App\Src\usbd_desc.o
                0x20005900                USBD_StrDesc
 COMMON         0x20005b00      0x834 Middlewares\ST\STM32_USB_Device_Library\App\Src\usbd_rndis_if.o
                0x20005b00                timestamp
                0x20005b08                UserTxBufferFS
 COMMON         0x20006334      0x190 Middlewares\ST\STM32_USB_Device_Library\Class\Composite\Src\usbd_composite.o
                0x20006334                usbd_composite_class_data
 COMMON         0x200064c4       0x40 Middlewares\Third_Party\FreeRTOS\Source\queue.o
                0x200064c4                xQueueRegistry
 COMMON         0x20006504       0x28 Middlewares\Third_Party\FreeRTOS-Plus\FreeRTOS-Plus-TCP\FreeRTOS_Sockets.o
                0x20006504                xBoundTCPSocketsList
                0x20006518                xBoundUDPSocketsList
 COMMON         0x2000652c        0x4 Src\main.o
                0x2000652c                defaultTaskHandle
 COMMON         0x20006530       0x3c Src\stm32f4xx_hal_timebase_TIM.o
                0x20006530                htim1
 COMMON         0x2000656c        0x4 c:/program files (x86)/atollic/truestudio for stm32 9.0.0/armtools/bin/../lib/gcc/arm-atollic-eabi/6.3.1/../../../../arm-atollic-eabi/lib/armv7e-m/fpu\libc_nano.a(lib_a-reent.o)
                0x2000656c                errno
                0x20006570                . = ALIGN (0x4)
                0x20006570                _ebss = .
                0x20006570                __bss_end__ = _ebss

._user_heap_stack
                0x20006570      0x600 load address 0x08009ca0
                0x20006570                . = ALIGN (0x4)
                0x20006570                PROVIDE (end, .)
                [!provide]                PROVIDE (_end, .)
                0x20006770                . = (. + _Min_Heap_Size)
 *fill*         0x20006570      0x200 
                0x20006b70                . = (. + _Min_Stack_Size)
 *fill*         0x20006770      0x400 
                0x20006b70                . = ALIGN (0x4)

/DISCARD/
 libc.a(*)
 libm.a(*)
 libgcc.a(*)

.ARM.attributes
                0x00000000       0x30
 *(.ARM.attributes)
 .ARM.attributes
                0x00000000       0x22 c:/program files (x86)/atollic/truestudio for stm32 9.0.0/armtools/bin/../lib/gcc/arm-atollic-eabi/6.3.1/armv7e-m/fpu/crti.o
 .ARM.attributes
                0x00000022       0x34 c:/program files (x86)/atollic/truestudio for stm32 9.0.0/armtools/bin/../lib/gcc/arm-atollic-eabi/6.3.1/armv7e-m/fpu/crtbegin.o
 .ARM.attributes
                0x00000056       0x39 Drivers\STM32F4xx_HAL_Driver\Src\stm32f4xx_hal.o
 .ARM.attributes
                0x0000008f       0x39 Drivers\STM32F4xx_HAL_Driver\Src\stm32f4xx_hal_cortex.o
 .ARM.attributes
                0x000000c8       0x39 Drivers\STM32F4xx_HAL_Driver\Src\stm32f4xx_hal_gpio.o
 .ARM.attributes
                0x00000101       0x39 Drivers\STM32F4xx_HAL_Driver\Src\stm32f4xx_hal_pcd.o
 .ARM.attributes
                0x0000013a       0x39 Drivers\STM32F4xx_HAL_Driver\Src\stm32f4xx_hal_pcd_ex.o
 .ARM.attributes
                0x00000173       0x39 Drivers\STM32F4xx_HAL_Driver\Src\stm32f4xx_hal_rcc.o
 .ARM.attributes
                0x000001ac       0x39 Drivers\STM32F4xx_HAL_Driver\Src\stm32f4xx_hal_tim.o
 .ARM.attributes
                0x000001e5       0x39 Drivers\STM32F4xx_HAL_Driver\Src\stm32f4xx_hal_tim_ex.o
 .ARM.attributes
                0x0000021e       0x39 Drivers\STM32F4xx_HAL_Driver\Src\stm32f4xx_ll_usb.o
 .ARM.attributes
                0x00000257       0x39 Middlewares\ST\STM32_USB_Device_Library\App\Src\usb_device.o
 .ARM.attributes
                0x00000290       0x39 Middlewares\ST\STM32_USB_Device_Library\App\Src\usbd_conf.o
 .ARM.attributes
                0x000002c9       0x39 Middlewares\ST\STM32_USB_Device_Library\App\Src\usbd_desc.o
 .ARM.attributes
                0x00000302       0x39 Middlewares\ST\STM32_USB_Device_Library\App\Src\usbd_rndis_if.o
 .ARM.attributes
                0x0000033b       0x39 Middlewares\ST\STM32_USB_Device_Library\Class\Composite\Src\usbd_composite.o
 .ARM.attributes
                0x00000374       0x39 Middlewares\ST\STM32_USB_Device_Library\Class\RNDIS\Src\usbd_rndis.o
 .ARM.attributes
                0x000003ad       0x39 Middlewares\ST\STM32_USB_Device_Library\Core\Src\usbd_core.o
 .ARM.attributes
                0x000003e6       0x39 Middlewares\ST\STM32_USB_Device_Library\Core\Src\usbd_ctlreq.o
 .ARM.attributes
                0x0000041f       0x39 Middlewares\ST\STM32_USB_Device_Library\Core\Src\usbd_ioreq.o
 .ARM.attributes
                0x00000458       0x39 Middlewares\Third_Party\FreeRTOS\Source\CMSIS_RTOS\cmsis_os.o
 .ARM.attributes
                0x00000491       0x39 Middlewares\Third_Party\FreeRTOS\Source\event_groups.o
 .ARM.attributes
                0x000004ca       0x39 Middlewares\Third_Party\FreeRTOS\Source\list.o
 .ARM.attributes
                0x00000503       0x39 Middlewares\Third_Party\FreeRTOS\Source\portable\GCC\ARM_CM4F\port.o
 .ARM.attributes
                0x0000053c       0x39 Middlewares\Third_Party\FreeRTOS\Source\portable\MemMang\heap_4.o
 .ARM.attributes
                0x00000575       0x39 Middlewares\Third_Party\FreeRTOS\Source\queue.o
 .ARM.attributes
                0x000005ae       0x39 Middlewares\Third_Party\FreeRTOS\Source\tasks.o
 .ARM.attributes
                0x000005e7       0x39 Middlewares\Third_Party\FreeRTOS-Plus\FreeRTOS-Plus-TCP\FreeRTOS_ARP.o
 .ARM.attributes
                0x00000620       0x39 Middlewares\Third_Party\FreeRTOS-Plus\FreeRTOS-Plus-TCP\FreeRTOS_DHCP.o
 .ARM.attributes
                0x00000659       0x39 Middlewares\Third_Party\FreeRTOS-Plus\FreeRTOS-Plus-TCP\FreeRTOS_DNS.o
 .ARM.attributes
                0x00000692       0x39 Middlewares\Third_Party\FreeRTOS-Plus\FreeRTOS-Plus-TCP\FreeRTOS_IP.o
 .ARM.attributes
                0x000006cb       0x39 Middlewares\Third_Party\FreeRTOS-Plus\FreeRTOS-Plus-TCP\FreeRTOS_Sockets.o
 .ARM.attributes
                0x00000704       0x39 Middlewares\Third_Party\FreeRTOS-Plus\FreeRTOS-Plus-TCP\FreeRTOS_Stream_Buffer.o
 .ARM.attributes
                0x0000073d       0x39 Middlewares\Third_Party\FreeRTOS-Plus\FreeRTOS-Plus-TCP\FreeRTOS_TCP_IP.o
 .ARM.attributes
                0x00000776       0x39 Middlewares\Third_Party\FreeRTOS-Plus\FreeRTOS-Plus-TCP\FreeRTOS_TCP_WIN.o
 .ARM.attributes
                0x000007af       0x39 Middlewares\Third_Party\FreeRTOS-Plus\FreeRTOS-Plus-TCP\FreeRTOS_UDP_IP.o
 .ARM.attributes
                0x000007e8       0x39 Middlewares\Third_Party\FreeRTOS-Plus\FreeRTOS-Plus-TCP\portable\BufferManagement\BufferAllocation_2.o
 .ARM.attributes
                0x00000821       0x39 Src\freertos.o
 .ARM.attributes
                0x0000085a       0x39 Src\main.o
 .ARM.attributes
                0x00000893       0x39 Src\stm32f4xx_hal_msp.o
 .ARM.attributes
                0x000008cc       0x39 Src\stm32f4xx_hal_timebase_TIM.o
 .ARM.attributes
                0x00000905       0x39 Src\stm32f4xx_it.o
 .ARM.attributes
                0x0000093e       0x39 Src\system_stm32f4xx.o
 .ARM.attributes
                0x00000977       0x21 startup\startup_stm32f411xe.o
 .ARM.attributes
                0x00000998       0x34 c:/program files (x86)/atollic/truestudio for stm32 9.0.0/armtools/bin/../lib/gcc/arm-atollic-eabi/6.3.1/../../../../arm-atollic-eabi/lib/armv7e-m/fpu\libc_nano.a(lib_a-init.o)
 .ARM.attributes
                0x000009cc       0x34 c:/program files (x86)/atollic/truestudio for stm32 9.0.0/armtools/bin/../lib/gcc/arm-atollic-eabi/6.3.1/../../../../arm-atollic-eabi/lib/armv7e-m/fpu\libc_nano.a(lib_a-malloc.o)
 .ARM.attributes
                0x00000a00       0x34 c:/program files (x86)/atollic/truestudio for stm32 9.0.0/armtools/bin/../lib/gcc/arm-atollic-eabi/6.3.1/../../../../arm-atollic-eabi/lib/armv7e-m/fpu\libc_nano.a(lib_a-memcmp.o)
 .ARM.attributes
                0x00000a34       0x34 c:/program files (x86)/atollic/truestudio for stm32 9.0.0/armtools/bin/../lib/gcc/arm-atollic-eabi/6.3.1/../../../../arm-atollic-eabi/lib/armv7e-m/fpu\libc_nano.a(lib_a-memcpy-stub.o)
 .ARM.attributes
                0x00000a68       0x34 c:/program files (x86)/atollic/truestudio for stm32 9.0.0/armtools/bin/../lib/gcc/arm-atollic-eabi/6.3.1/../../../../arm-atollic-eabi/lib/armv7e-m/fpu\libc_nano.a(lib_a-memmove.o)
 .ARM.attributes
                0x00000a9c       0x34 c:/program files (x86)/atollic/truestudio for stm32 9.0.0/armtools/bin/../lib/gcc/arm-atollic-eabi/6.3.1/../../../../arm-atollic-eabi/lib/armv7e-m/fpu\libc_nano.a(lib_a-memset.o)
 .ARM.attributes
                0x00000ad0       0x34 c:/program files (x86)/atollic/truestudio for stm32 9.0.0/armtools/bin/../lib/gcc/arm-atollic-eabi/6.3.1/../../../../arm-atollic-eabi/lib/armv7e-m/fpu\libc_nano.a(lib_a-nano-freer.o)
 .ARM.attributes
                0x00000b04       0x34 c:/program files (x86)/atollic/truestudio for stm32 9.0.0/armtools/bin/../lib/gcc/arm-atollic-eabi/6.3.1/../../../../arm-atollic-eabi/lib/armv7e-m/fpu\libc_nano.a(lib_a-nano-mallocr.o)
 .ARM.attributes
                0x00000b38       0x34 c:/program files (x86)/atollic/truestudio for stm32 9.0.0/armtools/bin/../lib/gcc/arm-atollic-eabi/6.3.1/../../../../arm-atollic-eabi/lib/armv7e-m/fpu\libc_nano.a(lib_a-rand.o)
 .ARM.attributes
                0x00000b6c       0x34 c:/program files (x86)/atollic/truestudio for stm32 9.0.0/armtools/bin/../lib/gcc/arm-atollic-eabi/6.3.1/../../../../arm-atollic-eabi/lib/armv7e-m/fpu\libc_nano.a(lib_a-sbrkr.o)
 .ARM.attributes
                0x00000ba0       0x34 c:/program files (x86)/atollic/truestudio for stm32 9.0.0/armtools/bin/../lib/gcc/arm-atollic-eabi/6.3.1/../../../../arm-atollic-eabi/lib/armv7e-m/fpu\libc_nano.a(lib_a-strcasecmp.o)
 .ARM.attributes
                0x00000bd4       0x1b c:/program files (x86)/atollic/truestudio for stm32 9.0.0/armtools/bin/../lib/gcc/arm-atollic-eabi/6.3.1/../../../../arm-atollic-eabi/lib/armv7e-m/fpu\libc_nano.a(lib_a-strlen.o)
 .ARM.attributes
                0x00000bef       0x34 c:/program files (x86)/atollic/truestudio for stm32 9.0.0/armtools/bin/../lib/gcc/arm-atollic-eabi/6.3.1/../../../../arm-atollic-eabi/lib/armv7e-m/fpu\libc_nano.a(lib_a-strncmp.o)
 .ARM.attributes
                0x00000c23       0x34 c:/program files (x86)/atollic/truestudio for stm32 9.0.0/armtools/bin/../lib/gcc/arm-atollic-eabi/6.3.1/../../../../arm-atollic-eabi/lib/armv7e-m/fpu\libc_nano.a(lib_a-strncpy.o)
 .ARM.attributes
                0x00000c57       0x34 c:/program files (x86)/atollic/truestudio for stm32 9.0.0/armtools/bin/../lib/gcc/arm-atollic-eabi/6.3.1/../../../../arm-atollic-eabi/lib/armv7e-m/fpu\libc_nano.a(lib_a-impure.o)
 .ARM.attributes
                0x00000c8b       0x34 c:/program files (x86)/atollic/truestudio for stm32 9.0.0/armtools/bin/../lib/gcc/arm-atollic-eabi/6.3.1/../../../../arm-atollic-eabi/lib/armv7e-m/fpu\libc_nano.a(lib_a-locale.o)
 .ARM.attributes
                0x00000cbf       0x34 c:/program files (x86)/atollic/truestudio for stm32 9.0.0/armtools/bin/../lib/gcc/arm-atollic-eabi/6.3.1/../../../../arm-atollic-eabi/lib/armv7e-m/fpu\libc_nano.a(lib_a-mbtowc_r.o)
 .ARM.attributes
                0x00000cf3       0x34 c:/program files (x86)/atollic/truestudio for stm32 9.0.0/armtools/bin/../lib/gcc/arm-atollic-eabi/6.3.1/../../../../arm-atollic-eabi/lib/armv7e-m/fpu\libc_nano.a(lib_a-mlock.o)
 .ARM.attributes
                0x00000d27       0x34 c:/program files (x86)/atollic/truestudio for stm32 9.0.0/armtools/bin/../lib/gcc/arm-atollic-eabi/6.3.1/../../../../arm-atollic-eabi/lib/armv7e-m/fpu\libc_nano.a(lib_a-reent.o)
 .ARM.attributes
                0x00000d5b       0x34 c:/program files (x86)/atollic/truestudio for stm32 9.0.0/armtools/bin/../lib/gcc/arm-atollic-eabi/6.3.1/../../../../arm-atollic-eabi/lib/armv7e-m/fpu\libc_nano.a(lib_a-wctomb_r.o)
 .ARM.attributes
                0x00000d8f       0x34 c:/program files (x86)/atollic/truestudio for stm32 9.0.0/armtools/bin/../lib/gcc/arm-atollic-eabi/6.3.1/../../../../arm-atollic-eabi/lib/armv7e-m/fpu\libc_nano.a(lib_a-ctype_.o)
 .ARM.attributes
                0x00000dc3       0x22 c:/program files (x86)/atollic/truestudio for stm32 9.0.0/armtools/bin/../lib/gcc/arm-atollic-eabi/6.3.1/armv7e-m/fpu\libgcc.a(_aeabi_uldivmod.o)
 .ARM.attributes
                0x00000de5       0x34 c:/program files (x86)/atollic/truestudio for stm32 9.0.0/armtools/bin/../lib/gcc/arm-atollic-eabi/6.3.1/armv7e-m/fpu\libgcc.a(_udivmoddi4.o)
 .ARM.attributes
                0x00000e19       0x22 c:/program files (x86)/atollic/truestudio for stm32 9.0.0/armtools/bin/../lib/gcc/arm-atollic-eabi/6.3.1/armv7e-m/fpu\libgcc.a(_dvmd_tls.o)
 .ARM.attributes
                0x00000e3b       0x34 c:/program files (x86)/atollic/truestudio for stm32 9.0.0/armtools/bin/../lib/gcc/arm-atollic-eabi/6.3.1/../../../../arm-atollic-eabi/lib/armv7e-m/fpu\libnosys.a(sbrk.o)
 .ARM.attributes
                0x00000e6f       0x22 c:/program files (x86)/atollic/truestudio for stm32 9.0.0/armtools/bin/../lib/gcc/arm-atollic-eabi/6.3.1/armv7e-m/fpu/crtn.o
OUTPUT(ADHOC.elf elf32-littlearm)

.debug_info     0x00000000    0x3fd3e
 .debug_info    0x00000000     0x1180 Drivers\STM32F4xx_HAL_Driver\Src\stm32f4xx_hal.o
 .debug_info    0x00001180     0x16b4 Drivers\STM32F4xx_HAL_Driver\Src\stm32f4xx_hal_cortex.o
 .debug_info    0x00002834      0xfb0 Drivers\STM32F4xx_HAL_Driver\Src\stm32f4xx_hal_gpio.o
 .debug_info    0x000037e4     0x1c57 Drivers\STM32F4xx_HAL_Driver\Src\stm32f4xx_hal_pcd.o
 .debug_info    0x0000543b      0xdc5 Drivers\STM32F4xx_HAL_Driver\Src\stm32f4xx_hal_pcd_ex.o
 .debug_info    0x00006200     0x1293 Drivers\STM32F4xx_HAL_Driver\Src\stm32f4xx_hal_rcc.o
 .debug_info    0x00007493     0x3b9a Drivers\STM32F4xx_HAL_Driver\Src\stm32f4xx_hal_tim.o
 .debug_info    0x0000b02d     0x199d Drivers\STM32F4xx_HAL_Driver\Src\stm32f4xx_hal_tim_ex.o
 .debug_info    0x0000c9ca     0x1f59 Drivers\STM32F4xx_HAL_Driver\Src\stm32f4xx_ll_usb.o
 .debug_info    0x0000e923      0xec5 Middlewares\ST\STM32_USB_Device_Library\App\Src\usb_device.o
 .debug_info    0x0000f7e8     0x234e Middlewares\ST\STM32_USB_Device_Library\App\Src\usbd_conf.o
 .debug_info    0x00011b36      0xd77 Middlewares\ST\STM32_USB_Device_Library\App\Src\usbd_desc.o
 .debug_info    0x000128ad     0x1ab2 Middlewares\ST\STM32_USB_Device_Library\App\Src\usbd_rndis_if.o
 .debug_info    0x0001435f     0x1682 Middlewares\ST\STM32_USB_Device_Library\Class\Composite\Src\usbd_composite.o
 .debug_info    0x000159e1     0x155e Middlewares\ST\STM32_USB_Device_Library\Class\RNDIS\Src\usbd_rndis.o
 .debug_info    0x00016f3f     0x1466 Middlewares\ST\STM32_USB_Device_Library\Core\Src\usbd_core.o
 .debug_info    0x000183a5     0x1499 Middlewares\ST\STM32_USB_Device_Library\Core\Src\usbd_ctlreq.o
 .debug_info    0x0001983e      0xfc5 Middlewares\ST\STM32_USB_Device_Library\Core\Src\usbd_ioreq.o
 .debug_info    0x0001a803     0x251d Middlewares\Third_Party\FreeRTOS\Source\CMSIS_RTOS\cmsis_os.o
 .debug_info    0x0001cd20     0x1381 Middlewares\Third_Party\FreeRTOS\Source\event_groups.o
 .debug_info    0x0001e0a1      0xac0 Middlewares\Third_Party\FreeRTOS\Source\list.o
 .debug_info    0x0001eb61      0x531 Middlewares\Third_Party\FreeRTOS\Source\portable\GCC\ARM_CM4F\port.o
 .debug_info    0x0001f092      0xcd0 Middlewares\Third_Party\FreeRTOS\Source\portable\MemMang\heap_4.o
 .debug_info    0x0001fd62     0x2086 Middlewares\Third_Party\FreeRTOS\Source\queue.o
 .debug_info    0x00021de8     0x29ed Middlewares\Third_Party\FreeRTOS\Source\tasks.o
 .debug_info    0x000247d5     0x1197 Middlewares\Third_Party\FreeRTOS-Plus\FreeRTOS-Plus-TCP\FreeRTOS_ARP.o
 .debug_info    0x0002596c     0x157f Middlewares\Third_Party\FreeRTOS-Plus\FreeRTOS-Plus-TCP\FreeRTOS_DHCP.o
 .debug_info    0x00026eeb     0x212c Middlewares\Third_Party\FreeRTOS-Plus\FreeRTOS-Plus-TCP\FreeRTOS_DNS.o
 .debug_info    0x00029017     0x3401 Middlewares\Third_Party\FreeRTOS-Plus\FreeRTOS-Plus-TCP\FreeRTOS_IP.o
 .debug_info    0x0002c418     0x4271 Middlewares\Third_Party\FreeRTOS-Plus\FreeRTOS-Plus-TCP\FreeRTOS_Sockets.o
 .debug_info    0x00030689     0x1070 Middlewares\Third_Party\FreeRTOS-Plus\FreeRTOS-Plus-TCP\FreeRTOS_Stream_Buffer.o
 .debug_info    0x000316f9     0x3982 Middlewares\Third_Party\FreeRTOS-Plus\FreeRTOS-Plus-TCP\FreeRTOS_TCP_IP.o
 .debug_info    0x0003507b     0x2147 Middlewares\Third_Party\FreeRTOS-Plus\FreeRTOS-Plus-TCP\FreeRTOS_TCP_WIN.o
 .debug_info    0x000371c2     0x1953 Middlewares\Third_Party\FreeRTOS-Plus\FreeRTOS-Plus-TCP\FreeRTOS_UDP_IP.o
 .debug_info    0x00038b15     0x10a0 Middlewares\Third_Party\FreeRTOS-Plus\FreeRTOS-Plus-TCP\portable\BufferManagement\BufferAllocation_2.o
 .debug_info    0x00039bb5       0xf6 Src\freertos.o
 .debug_info    0x00039cab     0x1f59 Src\main.o
 .debug_info    0x0003bc04      0xdeb Src\stm32f4xx_hal_msp.o
 .debug_info    0x0003c9ef     0x1347 Src\stm32f4xx_hal_timebase_TIM.o
 .debug_info    0x0003dd36     0x1251 Src\stm32f4xx_it.o
 .debug_info    0x0003ef87      0xd46 Src\system_stm32f4xx.o
 .debug_info    0x0003fccd       0x71 startup\startup_stm32f411xe.o

.debug_abbrev   0x00000000     0x7ffd
 .debug_abbrev  0x00000000      0x308 Drivers\STM32F4xx_HAL_Driver\Src\stm32f4xx_hal.o
 .debug_abbrev  0x00000308      0x399 Drivers\STM32F4xx_HAL_Driver\Src\stm32f4xx_hal_cortex.o
 .debug_abbrev  0x000006a1      0x268 Drivers\STM32F4xx_HAL_Driver\Src\stm32f4xx_hal_gpio.o
 .debug_abbrev  0x00000909      0x397 Drivers\STM32F4xx_HAL_Driver\Src\stm32f4xx_hal_pcd.o
 .debug_abbrev  0x00000ca0      0x213 Drivers\STM32F4xx_HAL_Driver\Src\stm32f4xx_hal_pcd_ex.o
 .debug_abbrev  0x00000eb3      0x353 Drivers\STM32F4xx_HAL_Driver\Src\stm32f4xx_hal_rcc.o
 .debug_abbrev  0x00001206      0x3ac Drivers\STM32F4xx_HAL_Driver\Src\stm32f4xx_hal_tim.o
 .debug_abbrev  0x000015b2      0x300 Drivers\STM32F4xx_HAL_Driver\Src\stm32f4xx_hal_tim_ex.o
 .debug_abbrev  0x000018b2      0x380 Drivers\STM32F4xx_HAL_Driver\Src\stm32f4xx_ll_usb.o
 .debug_abbrev  0x00001c32      0x1e0 Middlewares\ST\STM32_USB_Device_Library\App\Src\usb_device.o
 .debug_abbrev  0x00001e12      0x2e8 Middlewares\ST\STM32_USB_Device_Library\App\Src\usbd_conf.o
 .debug_abbrev  0x000020fa      0x29d Middlewares\ST\STM32_USB_Device_Library\App\Src\usbd_desc.o
 .debug_abbrev  0x00002397      0x3e9 Middlewares\ST\STM32_USB_Device_Library\App\Src\usbd_rndis_if.o
 .debug_abbrev  0x00002780      0x2d2 Middlewares\ST\STM32_USB_Device_Library\Class\Composite\Src\usbd_composite.o
 .debug_abbrev  0x00002a52      0x2e8 Middlewares\ST\STM32_USB_Device_Library\Class\RNDIS\Src\usbd_rndis.o
 .debug_abbrev  0x00002d3a      0x308 Middlewares\ST\STM32_USB_Device_Library\Core\Src\usbd_core.o
 .debug_abbrev  0x00003042      0x3aa Middlewares\ST\STM32_USB_Device_Library\Core\Src\usbd_ctlreq.o
 .debug_abbrev  0x000033ec      0x1da Middlewares\ST\STM32_USB_Device_Library\Core\Src\usbd_ioreq.o
 .debug_abbrev  0x000035c6      0x450 Middlewares\Third_Party\FreeRTOS\Source\CMSIS_RTOS\cmsis_os.o
 .debug_abbrev  0x00003a16      0x395 Middlewares\Third_Party\FreeRTOS\Source\event_groups.o
 .debug_abbrev  0x00003dab      0x1e3 Middlewares\Third_Party\FreeRTOS\Source\list.o
 .debug_abbrev  0x00003f8e      0x211 Middlewares\Third_Party\FreeRTOS\Source\portable\GCC\ARM_CM4F\port.o
 .debug_abbrev  0x0000419f      0x330 Middlewares\Third_Party\FreeRTOS\Source\portable\MemMang\heap_4.o
 .debug_abbrev  0x000044cf      0x3b6 Middlewares\Third_Party\FreeRTOS\Source\queue.o
 .debug_abbrev  0x00004885      0x428 Middlewares\Third_Party\FreeRTOS\Source\tasks.o
 .debug_abbrev  0x00004cad      0x35c Middlewares\Third_Party\FreeRTOS-Plus\FreeRTOS-Plus-TCP\FreeRTOS_ARP.o
 .debug_abbrev  0x00005009      0x353 Middlewares\Third_Party\FreeRTOS-Plus\FreeRTOS-Plus-TCP\FreeRTOS_DHCP.o
 .debug_abbrev  0x0000535c      0x3ba Middlewares\Third_Party\FreeRTOS-Plus\FreeRTOS-Plus-TCP\FreeRTOS_DNS.o
 .debug_abbrev  0x00005716      0x517 Middlewares\Third_Party\FreeRTOS-Plus\FreeRTOS-Plus-TCP\FreeRTOS_IP.o
 .debug_abbrev  0x00005c2d      0x514 Middlewares\Third_Party\FreeRTOS-Plus\FreeRTOS-Plus-TCP\FreeRTOS_Sockets.o
 .debug_abbrev  0x00006141      0x299 Middlewares\Third_Party\FreeRTOS-Plus\FreeRTOS-Plus-TCP\FreeRTOS_Stream_Buffer.o
 .debug_abbrev  0x000063da      0x4c4 Middlewares\Third_Party\FreeRTOS-Plus\FreeRTOS-Plus-TCP\FreeRTOS_TCP_IP.o
 .debug_abbrev  0x0000689e      0x402 Middlewares\Third_Party\FreeRTOS-Plus\FreeRTOS-Plus-TCP\FreeRTOS_TCP_WIN.o
 .debug_abbrev  0x00006ca0      0x322 Middlewares\Third_Party\FreeRTOS-Plus\FreeRTOS-Plus-TCP\FreeRTOS_UDP_IP.o
 .debug_abbrev  0x00006fc2      0x38d Middlewares\Third_Party\FreeRTOS-Plus\FreeRTOS-Plus-TCP\portable\BufferManagement\BufferAllocation_2.o
 .debug_abbrev  0x0000734f       0x99 Src\freertos.o
 .debug_abbrev  0x000073e8      0x3a3 Src\main.o
 .debug_abbrev  0x0000778b      0x200 Src\stm32f4xx_hal_msp.o
 .debug_abbrev  0x0000798b      0x258 Src\stm32f4xx_hal_timebase_TIM.o
 .debug_abbrev  0x00007be3      0x23e Src\stm32f4xx_it.o
 .debug_abbrev  0x00007e21      0x1ca Src\system_stm32f4xx.o
 .debug_abbrev  0x00007feb       0x12 startup\startup_stm32f411xe.o

.debug_loc      0x00000000    0x16ed6
 .debug_loc     0x00000000      0x11b Drivers\STM32F4xx_HAL_Driver\Src\stm32f4xx_hal.o
 .debug_loc     0x0000011b      0x4fb Drivers\STM32F4xx_HAL_Driver\Src\stm32f4xx_hal_cortex.o
 .debug_loc     0x00000616      0x381 Drivers\STM32F4xx_HAL_Driver\Src\stm32f4xx_hal_gpio.o
 .debug_loc     0x00000997      0xb60 Drivers\STM32F4xx_HAL_Driver\Src\stm32f4xx_hal_pcd.o
 .debug_loc     0x000014f7      0x10a Drivers\STM32F4xx_HAL_Driver\Src\stm32f4xx_hal_pcd_ex.o
 .debug_loc     0x00001601      0x336 Drivers\STM32F4xx_HAL_Driver\Src\stm32f4xx_hal_rcc.o
 .debug_loc     0x00001937     0x2ff9 Drivers\STM32F4xx_HAL_Driver\Src\stm32f4xx_hal_tim.o
 .debug_loc     0x00004930      0x84a Drivers\STM32F4xx_HAL_Driver\Src\stm32f4xx_hal_tim_ex.o
 .debug_loc     0x0000517a     0x1632 Drivers\STM32F4xx_HAL_Driver\Src\stm32f4xx_ll_usb.o
 .debug_loc     0x000067ac      0x9e7 Middlewares\ST\STM32_USB_Device_Library\App\Src\usbd_conf.o
 .debug_loc     0x00007193      0x273 Middlewares\ST\STM32_USB_Device_Library\App\Src\usbd_desc.o
 .debug_loc     0x00007406      0x7d2 Middlewares\ST\STM32_USB_Device_Library\App\Src\usbd_rndis_if.o
 .debug_loc     0x00007bd8      0xb73 Middlewares\ST\STM32_USB_Device_Library\Class\Composite\Src\usbd_composite.o
 .debug_loc     0x0000874b      0x53d Middlewares\ST\STM32_USB_Device_Library\Class\RNDIS\Src\usbd_rndis.o
 .debug_loc     0x00008c88      0x5f2 Middlewares\ST\STM32_USB_Device_Library\Core\Src\usbd_core.o
 .debug_loc     0x0000927a      0x7cd Middlewares\ST\STM32_USB_Device_Library\Core\Src\usbd_ctlreq.o
 .debug_loc     0x00009a47      0x23c Middlewares\ST\STM32_USB_Device_Library\Core\Src\usbd_ioreq.o
 .debug_loc     0x00009c83     0x1046 Middlewares\Third_Party\FreeRTOS\Source\CMSIS_RTOS\cmsis_os.o
 .debug_loc     0x0000acc9      0x810 Middlewares\Third_Party\FreeRTOS\Source\event_groups.o
 .debug_loc     0x0000b4d9       0x94 Middlewares\Third_Party\FreeRTOS\Source\list.o
 .debug_loc     0x0000b56d       0xcf Middlewares\Third_Party\FreeRTOS\Source\portable\GCC\ARM_CM4F\port.o
 .debug_loc     0x0000b63c      0x391 Middlewares\Third_Party\FreeRTOS\Source\portable\MemMang\heap_4.o
 .debug_loc     0x0000b9cd      0xe6a Middlewares\Third_Party\FreeRTOS\Source\queue.o
 .debug_loc     0x0000c837     0x1274 Middlewares\Third_Party\FreeRTOS\Source\tasks.o
 .debug_loc     0x0000daab      0x351 Middlewares\Third_Party\FreeRTOS-Plus\FreeRTOS-Plus-TCP\FreeRTOS_ARP.o
 .debug_loc     0x0000ddfc      0x46d Middlewares\Third_Party\FreeRTOS-Plus\FreeRTOS-Plus-TCP\FreeRTOS_DHCP.o
 .debug_loc     0x0000e269      0xef4 Middlewares\Third_Party\FreeRTOS-Plus\FreeRTOS-Plus-TCP\FreeRTOS_DNS.o
 .debug_loc     0x0000f15d     0x1225 Middlewares\Third_Party\FreeRTOS-Plus\FreeRTOS-Plus-TCP\FreeRTOS_IP.o
 .debug_loc     0x00010382     0x2a48 Middlewares\Third_Party\FreeRTOS-Plus\FreeRTOS-Plus-TCP\FreeRTOS_Sockets.o
 .debug_loc     0x00012dca      0x343 Middlewares\Third_Party\FreeRTOS-Plus\FreeRTOS-Plus-TCP\FreeRTOS_Stream_Buffer.o
 .debug_loc     0x0001310d     0x2397 Middlewares\Third_Party\FreeRTOS-Plus\FreeRTOS-Plus-TCP\FreeRTOS_TCP_IP.o
 .debug_loc     0x000154a4     0x12f3 Middlewares\Third_Party\FreeRTOS-Plus\FreeRTOS-Plus-TCP\FreeRTOS_TCP_WIN.o
 .debug_loc     0x00016797      0x15e Middlewares\Third_Party\FreeRTOS-Plus\FreeRTOS-Plus-TCP\FreeRTOS_UDP_IP.o
 .debug_loc     0x000168f5      0x397 Middlewares\Third_Party\FreeRTOS-Plus\FreeRTOS-Plus-TCP\portable\BufferManagement\BufferAllocation_2.o
 .debug_loc     0x00016c8c       0x9a Src\main.o
 .debug_loc     0x00016d26       0x94 Src\stm32f4xx_hal_timebase_TIM.o
 .debug_loc     0x00016dba      0x11c Src\system_stm32f4xx.o

.debug_aranges  0x00000000     0x18a0
 .debug_aranges
                0x00000000       0xd8 Drivers\STM32F4xx_HAL_Driver\Src\stm32f4xx_hal.o
 .debug_aranges
                0x000000d8       0xa8 Drivers\STM32F4xx_HAL_Driver\Src\stm32f4xx_hal_cortex.o
 .debug_aranges
                0x00000180       0x58 Drivers\STM32F4xx_HAL_Driver\Src\stm32f4xx_hal_gpio.o
 .debug_aranges
                0x000001d8       0xc0 Drivers\STM32F4xx_HAL_Driver\Src\stm32f4xx_hal_pcd.o
 .debug_aranges
                0x00000298       0x28 Drivers\STM32F4xx_HAL_Driver\Src\stm32f4xx_hal_pcd_ex.o
 .debug_aranges
                0x000002c0       0x88 Drivers\STM32F4xx_HAL_Driver\Src\stm32f4xx_hal_rcc.o
 .debug_aranges
                0x00000348      0x250 Drivers\STM32F4xx_HAL_Driver\Src\stm32f4xx_hal_tim.o
 .debug_aranges
                0x00000598       0xf0 Drivers\STM32F4xx_HAL_Driver\Src\stm32f4xx_hal_tim_ex.o
 .debug_aranges
                0x00000688      0x178 Drivers\STM32F4xx_HAL_Driver\Src\stm32f4xx_ll_usb.o
 .debug_aranges
                0x00000800       0x20 Middlewares\ST\STM32_USB_Device_Library\App\Src\usb_device.o
 .debug_aranges
                0x00000820      0x100 Middlewares\ST\STM32_USB_Device_Library\App\Src\usbd_conf.o
 .debug_aranges
                0x00000920       0x50 Middlewares\ST\STM32_USB_Device_Library\App\Src\usbd_desc.o
 .debug_aranges
                0x00000970       0x68 Middlewares\ST\STM32_USB_Device_Library\App\Src\usbd_rndis_if.o
 .debug_aranges
                0x000009d8       0x90 Middlewares\ST\STM32_USB_Device_Library\Class\Composite\Src\usbd_composite.o
 .debug_aranges
                0x00000a68       0x98 Middlewares\ST\STM32_USB_Device_Library\Class\RNDIS\Src\usbd_rndis.o
 .debug_aranges
                0x00000b00       0xa8 Middlewares\ST\STM32_USB_Device_Library\Core\Src\usbd_core.o
 .debug_aranges
                0x00000ba8       0x50 Middlewares\ST\STM32_USB_Device_Library\Core\Src\usbd_ctlreq.o
 .debug_aranges
                0x00000bf8       0x50 Middlewares\ST\STM32_USB_Device_Library\Core\Src\usbd_ioreq.o
 .debug_aranges
                0x00000c48      0x190 Middlewares\Third_Party\FreeRTOS\Source\CMSIS_RTOS\cmsis_os.o
 .debug_aranges
                0x00000dd8       0x60 Middlewares\Third_Party\FreeRTOS\Source\event_groups.o
 .debug_aranges
                0x00000e38       0x40 Middlewares\Third_Party\FreeRTOS\Source\list.o
 .debug_aranges
                0x00000e78       0x80 Middlewares\Third_Party\FreeRTOS\Source\portable\GCC\ARM_CM4F\port.o
 .debug_aranges
                0x00000ef8       0x48 Middlewares\Third_Party\FreeRTOS\Source\portable\MemMang\heap_4.o
 .debug_aranges
                0x00000f40       0xc8 Middlewares\Third_Party\FreeRTOS\Source\queue.o
 .debug_aranges
                0x00001008      0x170 Middlewares\Third_Party\FreeRTOS\Source\tasks.o
 .debug_aranges
                0x00001178       0x58 Middlewares\Third_Party\FreeRTOS-Plus\FreeRTOS-Plus-TCP\FreeRTOS_ARP.o
 .debug_aranges
                0x000011d0       0x50 Middlewares\Third_Party\FreeRTOS-Plus\FreeRTOS-Plus-TCP\FreeRTOS_DHCP.o
 .debug_aranges
                0x00001220       0x60 Middlewares\Third_Party\FreeRTOS-Plus\FreeRTOS-Plus-TCP\FreeRTOS_DNS.o
 .debug_aranges
                0x00001280      0x130 Middlewares\Third_Party\FreeRTOS-Plus\FreeRTOS-Plus-TCP\FreeRTOS_IP.o
 .debug_aranges
                0x000013b0      0x190 Middlewares\Third_Party\FreeRTOS-Plus\FreeRTOS-Plus-TCP\FreeRTOS_Sockets.o
 .debug_aranges
                0x00001540       0x28 Middlewares\Third_Party\FreeRTOS-Plus\FreeRTOS-Plus-TCP\FreeRTOS_Stream_Buffer.o
 .debug_aranges
                0x00001568       0x80 Middlewares\Third_Party\FreeRTOS-Plus\FreeRTOS-Plus-TCP\FreeRTOS_TCP_IP.o
 .debug_aranges
                0x000015e8       0xb0 Middlewares\Third_Party\FreeRTOS-Plus\FreeRTOS-Plus-TCP\FreeRTOS_TCP_WIN.o
 .debug_aranges
                0x00001698       0x28 Middlewares\Third_Party\FreeRTOS-Plus\FreeRTOS-Plus-TCP\FreeRTOS_UDP_IP.o
 .debug_aranges
                0x000016c0       0x58 Middlewares\Third_Party\FreeRTOS-Plus\FreeRTOS-Plus-TCP\portable\BufferManagement\BufferAllocation_2.o
 .debug_aranges
                0x00001718       0x28 Src\freertos.o
 .debug_aranges
                0x00001740       0x70 Src\main.o
 .debug_aranges
                0x000017b0       0x20 Src\stm32f4xx_hal_msp.o
 .debug_aranges
                0x000017d0       0x30 Src\stm32f4xx_hal_timebase_TIM.o
 .debug_aranges
                0x00001800       0x50 Src\stm32f4xx_it.o
 .debug_aranges
                0x00001850       0x28 Src\system_stm32f4xx.o
 .debug_aranges
                0x00001878       0x28 startup\startup_stm32f411xe.o

.debug_ranges   0x00000000     0x25f0
 .debug_ranges  0x00000000       0xc8 Drivers\STM32F4xx_HAL_Driver\Src\stm32f4xx_hal.o
 .debug_ranges  0x000000c8      0x138 Drivers\STM32F4xx_HAL_Driver\Src\stm32f4xx_hal_cortex.o
 .debug_ranges  0x00000200       0x68 Drivers\STM32F4xx_HAL_Driver\Src\stm32f4xx_hal_gpio.o
 .debug_ranges  0x00000268       0xc8 Drivers\STM32F4xx_HAL_Driver\Src\stm32f4xx_hal_pcd.o
 .debug_ranges  0x00000330       0x18 Drivers\STM32F4xx_HAL_Driver\Src\stm32f4xx_hal_pcd_ex.o
 .debug_ranges  0x00000348       0xb0 Drivers\STM32F4xx_HAL_Driver\Src\stm32f4xx_hal_rcc.o
 .debug_ranges  0x000003f8      0x330 Drivers\STM32F4xx_HAL_Driver\Src\stm32f4xx_hal_tim.o
 .debug_ranges  0x00000728       0xe0 Drivers\STM32F4xx_HAL_Driver\Src\stm32f4xx_hal_tim_ex.o
 .debug_ranges  0x00000808      0x180 Drivers\STM32F4xx_HAL_Driver\Src\stm32f4xx_ll_usb.o
 .debug_ranges  0x00000988       0x10 Middlewares\ST\STM32_USB_Device_Library\App\Src\usb_device.o
 .debug_ranges  0x00000998      0x108 Middlewares\ST\STM32_USB_Device_Library\App\Src\usbd_conf.o
 .debug_ranges  0x00000aa0       0x40 Middlewares\ST\STM32_USB_Device_Library\App\Src\usbd_desc.o
 .debug_ranges  0x00000ae0       0x58 Middlewares\ST\STM32_USB_Device_Library\App\Src\usbd_rndis_if.o
 .debug_ranges  0x00000b38       0xa0 Middlewares\ST\STM32_USB_Device_Library\Class\Composite\Src\usbd_composite.o
 .debug_ranges  0x00000bd8       0x88 Middlewares\ST\STM32_USB_Device_Library\Class\RNDIS\Src\usbd_rndis.o
 .debug_ranges  0x00000c60       0x98 Middlewares\ST\STM32_USB_Device_Library\Core\Src\usbd_core.o
 .debug_ranges  0x00000cf8       0xc0 Middlewares\ST\STM32_USB_Device_Library\Core\Src\usbd_ctlreq.o
 .debug_ranges  0x00000db8       0x40 Middlewares\ST\STM32_USB_Device_Library\Core\Src\usbd_ioreq.o
 .debug_ranges  0x00000df8      0x180 Middlewares\Third_Party\FreeRTOS\Source\CMSIS_RTOS\cmsis_os.o
 .debug_ranges  0x00000f78       0xb8 Middlewares\Third_Party\FreeRTOS\Source\event_groups.o
 .debug_ranges  0x00001030       0x30 Middlewares\Third_Party\FreeRTOS\Source\list.o
 .debug_ranges  0x00001060       0x88 Middlewares\Third_Party\FreeRTOS\Source\portable\GCC\ARM_CM4F\port.o
 .debug_ranges  0x000010e8       0x38 Middlewares\Third_Party\FreeRTOS\Source\portable\MemMang\heap_4.o
 .debug_ranges  0x00001120      0x1a8 Middlewares\Third_Party\FreeRTOS\Source\queue.o
 .debug_ranges  0x000012c8      0x250 Middlewares\Third_Party\FreeRTOS\Source\tasks.o
 .debug_ranges  0x00001518       0x60 Middlewares\Third_Party\FreeRTOS-Plus\FreeRTOS-Plus-TCP\FreeRTOS_ARP.o
 .debug_ranges  0x00001578       0x58 Middlewares\Third_Party\FreeRTOS-Plus\FreeRTOS-Plus-TCP\FreeRTOS_DHCP.o
 .debug_ranges  0x000015d0      0x170 Middlewares\Third_Party\FreeRTOS-Plus\FreeRTOS-Plus-TCP\FreeRTOS_DNS.o
 .debug_ranges  0x00001740      0x270 Middlewares\Third_Party\FreeRTOS-Plus\FreeRTOS-Plus-TCP\FreeRTOS_IP.o
 .debug_ranges  0x000019b0      0x328 Middlewares\Third_Party\FreeRTOS-Plus\FreeRTOS-Plus-TCP\FreeRTOS_Sockets.o
 .debug_ranges  0x00001cd8       0x60 Middlewares\Third_Party\FreeRTOS-Plus\FreeRTOS-Plus-TCP\FreeRTOS_Stream_Buffer.o
 .debug_ranges  0x00001d38      0x448 Middlewares\Third_Party\FreeRTOS-Plus\FreeRTOS-Plus-TCP\FreeRTOS_TCP_IP.o
 .debug_ranges  0x00002180      0x258 Middlewares\Third_Party\FreeRTOS-Plus\FreeRTOS-Plus-TCP\FreeRTOS_TCP_WIN.o
 .debug_ranges  0x000023d8       0x18 Middlewares\Third_Party\FreeRTOS-Plus\FreeRTOS-Plus-TCP\FreeRTOS_UDP_IP.o
 .debug_ranges  0x000023f0       0x48 Middlewares\Third_Party\FreeRTOS-Plus\FreeRTOS-Plus-TCP\portable\BufferManagement\BufferAllocation_2.o
 .debug_ranges  0x00002438       0x18 Src\freertos.o
 .debug_ranges  0x00002450       0xc0 Src\main.o
 .debug_ranges  0x00002510       0x28 Src\stm32f4xx_hal_msp.o
 .debug_ranges  0x00002538       0x40 Src\stm32f4xx_hal_timebase_TIM.o
 .debug_ranges  0x00002578       0x40 Src\stm32f4xx_it.o
 .debug_ranges  0x000025b8       0x18 Src\system_stm32f4xx.o
 .debug_ranges  0x000025d0       0x20 startup\startup_stm32f411xe.o

.debug_line     0x00000000     0xf9dd
 .debug_line    0x00000000      0x492 Drivers\STM32F4xx_HAL_Driver\Src\stm32f4xx_hal.o
 .debug_line    0x00000492      0x4dc Drivers\STM32F4xx_HAL_Driver\Src\stm32f4xx_hal_cortex.o
 .debug_line    0x0000096e      0x45e Drivers\STM32F4xx_HAL_Driver\Src\stm32f4xx_hal_gpio.o
 .debug_line    0x00000dcc      0x74a Drivers\STM32F4xx_HAL_Driver\Src\stm32f4xx_hal_pcd.o
 .debug_line    0x00001516      0x2ff Drivers\STM32F4xx_HAL_Driver\Src\stm32f4xx_hal_pcd_ex.o
 .debug_line    0x00001815      0x58b Drivers\STM32F4xx_HAL_Driver\Src\stm32f4xx_hal_rcc.o
 .debug_line    0x00001da0     0x10b4 Drivers\STM32F4xx_HAL_Driver\Src\stm32f4xx_hal_tim.o
 .debug_line    0x00002e54      0x6cb Drivers\STM32F4xx_HAL_Driver\Src\stm32f4xx_hal_tim_ex.o
 .debug_line    0x0000351f      0x8eb Drivers\STM32F4xx_HAL_Driver\Src\stm32f4xx_ll_usb.o
 .debug_line    0x00003e0a      0x4c7 Middlewares\ST\STM32_USB_Device_Library\App\Src\usb_device.o
 .debug_line    0x000042d1      0x6c6 Middlewares\ST\STM32_USB_Device_Library\App\Src\usbd_conf.o
 .debug_line    0x00004997      0x3e2 Middlewares\ST\STM32_USB_Device_Library\App\Src\usbd_desc.o
 .debug_line    0x00004d79      0x733 Middlewares\ST\STM32_USB_Device_Library\App\Src\usbd_rndis_if.o
 .debug_line    0x000054ac      0x743 Middlewares\ST\STM32_USB_Device_Library\Class\Composite\Src\usbd_composite.o
 .debug_line    0x00005bef      0x589 Middlewares\ST\STM32_USB_Device_Library\Class\RNDIS\Src\usbd_rndis.o
 .debug_line    0x00006178      0x4f4 Middlewares\ST\STM32_USB_Device_Library\Core\Src\usbd_core.o
 .debug_line    0x0000666c      0x474 Middlewares\ST\STM32_USB_Device_Library\Core\Src\usbd_ctlreq.o
 .debug_line    0x00006ae0      0x38a Middlewares\ST\STM32_USB_Device_Library\Core\Src\usbd_ioreq.o
 .debug_line    0x00006e6a      0x8d6 Middlewares\Third_Party\FreeRTOS\Source\CMSIS_RTOS\cmsis_os.o
 .debug_line    0x00007740      0x4f0 Middlewares\Third_Party\FreeRTOS\Source\event_groups.o
 .debug_line    0x00007c30      0x368 Middlewares\Third_Party\FreeRTOS\Source\list.o
 .debug_line    0x00007f98      0x349 Middlewares\Third_Party\FreeRTOS\Source\portable\GCC\ARM_CM4F\port.o
 .debug_line    0x000082e1      0x417 Middlewares\Third_Party\FreeRTOS\Source\portable\MemMang\heap_4.o
 .debug_line    0x000086f8      0x842 Middlewares\Third_Party\FreeRTOS\Source\queue.o
 .debug_line    0x00008f3a      0xba7 Middlewares\Third_Party\FreeRTOS\Source\tasks.o
 .debug_line    0x00009ae1      0x561 Middlewares\Third_Party\FreeRTOS-Plus\FreeRTOS-Plus-TCP\FreeRTOS_ARP.o
 .debug_line    0x0000a042      0x5b9 Middlewares\Third_Party\FreeRTOS-Plus\FreeRTOS-Plus-TCP\FreeRTOS_DHCP.o
 .debug_line    0x0000a5fb      0x6f6 Middlewares\Third_Party\FreeRTOS-Plus\FreeRTOS-Plus-TCP\FreeRTOS_DNS.o
 .debug_line    0x0000acf1      0x9e6 Middlewares\Third_Party\FreeRTOS-Plus\FreeRTOS-Plus-TCP\FreeRTOS_IP.o
 .debug_line    0x0000b6d7      0xe70 Middlewares\Third_Party\FreeRTOS-Plus\FreeRTOS-Plus-TCP\FreeRTOS_Sockets.o
 .debug_line    0x0000c547      0x41c Middlewares\Third_Party\FreeRTOS-Plus\FreeRTOS-Plus-TCP\FreeRTOS_Stream_Buffer.o
 .debug_line    0x0000c963      0xb09 Middlewares\Third_Party\FreeRTOS-Plus\FreeRTOS-Plus-TCP\FreeRTOS_TCP_IP.o
 .debug_line    0x0000d46c      0x815 Middlewares\Third_Party\FreeRTOS-Plus\FreeRTOS-Plus-TCP\FreeRTOS_TCP_WIN.o
 .debug_line    0x0000dc81      0x47d Middlewares\Third_Party\FreeRTOS-Plus\FreeRTOS-Plus-TCP\FreeRTOS_UDP_IP.o
 .debug_line    0x0000e0fe      0x4a3 Middlewares\Third_Party\FreeRTOS-Plus\FreeRTOS-Plus-TCP\portable\BufferManagement\BufferAllocation_2.o
 .debug_line    0x0000e5a1      0x18f Src\freertos.o
 .debug_line    0x0000e730      0x68d Src\main.o
 .debug_line    0x0000edbd      0x28c Src\stm32f4xx_hal_msp.o
 .debug_line    0x0000f049      0x327 Src\stm32f4xx_hal_timebase_TIM.o
 .debug_line    0x0000f370      0x379 Src\stm32f4xx_it.o
 .debug_line    0x0000f6e9      0x275 Src\system_stm32f4xx.o
 .debug_line    0x0000f95e       0x7f startup\startup_stm32f411xe.o

.debug_str      0x00000000     0xa75a
 .debug_str     0x00000000      0xdbb Drivers\STM32F4xx_HAL_Driver\Src\stm32f4xx_hal.o
                                0xe6d (size before relaxing)
 .debug_str     0x00000dbb      0x3ba Drivers\STM32F4xx_HAL_Driver\Src\stm32f4xx_hal_cortex.o
                                0xf32 (size before relaxing)
 .debug_str     0x00001175      0x1d3 Drivers\STM32F4xx_HAL_Driver\Src\stm32f4xx_hal_gpio.o
                                0x972 (size before relaxing)
 .debug_str     0x00001348      0x9ca Drivers\STM32F4xx_HAL_Driver\Src\stm32f4xx_hal_pcd.o
                               0x1068 (size before relaxing)
 .debug_str     0x00001d12       0x72 Drivers\STM32F4xx_HAL_Driver\Src\stm32f4xx_hal_pcd_ex.o
                                0x9ec (size before relaxing)
 .debug_str     0x00001d84      0x2d5 Drivers\STM32F4xx_HAL_Driver\Src\stm32f4xx_hal_rcc.o
                                0xb45 (size before relaxing)
 .debug_str     0x00002059     0x10e2 Drivers\STM32F4xx_HAL_Driver\Src\stm32f4xx_hal_tim.o
                               0x1825 (size before relaxing)
 .debug_str     0x0000313b      0x50d Drivers\STM32F4xx_HAL_Driver\Src\stm32f4xx_hal_tim_ex.o
                               0x10e5 (size before relaxing)
 .debug_str     0x00003648      0x3c4 Drivers\STM32F4xx_HAL_Driver\Src\stm32f4xx_ll_usb.o
                               0x1010 (size before relaxing)
 .debug_str     0x00003a0c      0x411 Middlewares\ST\STM32_USB_Device_Library\App\Src\usb_device.o
                                0xb0a (size before relaxing)
 .debug_str     0x00003e1d      0x2cc Middlewares\ST\STM32_USB_Device_Library\App\Src\usbd_conf.o
                               0x182c (size before relaxing)
 .debug_str     0x000040e9      0x149 Middlewares\ST\STM32_USB_Device_Library\App\Src\usbd_desc.o
                                0x8a2 (size before relaxing)
 .debug_str     0x00004232      0x864 Middlewares\ST\STM32_USB_Device_Library\App\Src\usbd_rndis_if.o
                               0x138a (size before relaxing)
 .debug_str     0x00004a96      0x42e Middlewares\ST\STM32_USB_Device_Library\Class\Composite\Src\usbd_composite.o
                                0xe8c (size before relaxing)
 .debug_str     0x00004ec4      0x1c4 Middlewares\ST\STM32_USB_Device_Library\Class\RNDIS\Src\usbd_rndis.o
                                0xd85 (size before relaxing)
 .debug_str     0x00005088      0x13a Middlewares\ST\STM32_USB_Device_Library\Core\Src\usbd_core.o
                                0xcbb (size before relaxing)
 .debug_str     0x000051c2       0xd4 Middlewares\ST\STM32_USB_Device_Library\Core\Src\usbd_ctlreq.o
                                0xbd5 (size before relaxing)
 .debug_str     0x00005296       0x51 Middlewares\ST\STM32_USB_Device_Library\Core\Src\usbd_ioreq.o
                                0xb02 (size before relaxing)
 .debug_str     0x000052e7      0xb11 Middlewares\Third_Party\FreeRTOS\Source\CMSIS_RTOS\cmsis_os.o
                               0x121d (size before relaxing)
 .debug_str     0x00005df8      0x337 Middlewares\Third_Party\FreeRTOS\Source\event_groups.o
                                0xaad (size before relaxing)
 .debug_str     0x0000612f       0xaf Middlewares\Third_Party\FreeRTOS\Source\list.o
                                0x74c (size before relaxing)
 .debug_str     0x000061de      0x1ff Middlewares\Third_Party\FreeRTOS\Source\portable\GCC\ARM_CM4F\port.o
                                0x47b (size before relaxing)
 .debug_str     0x000063dd      0x1fe Middlewares\Third_Party\FreeRTOS\Source\portable\MemMang\heap_4.o
                                0x852 (size before relaxing)
 .debug_str     0x000065db      0x44d Middlewares\Third_Party\FreeRTOS\Source\queue.o
                                0xd7d (size before relaxing)
 .debug_str     0x00006a28      0x692 Middlewares\Third_Party\FreeRTOS\Source\tasks.o
                               0x1282 (size before relaxing)
 .debug_str     0x000070ba      0x385 Middlewares\Third_Party\FreeRTOS-Plus\FreeRTOS-Plus-TCP\FreeRTOS_ARP.o
                                0xded (size before relaxing)
 .debug_str     0x0000743f      0x5b6 Middlewares\Third_Party\FreeRTOS-Plus\FreeRTOS-Plus-TCP\FreeRTOS_DHCP.o
                                0xea1 (size before relaxing)
 .debug_str     0x000079f5      0x69e Middlewares\Third_Party\FreeRTOS-Plus\FreeRTOS-Plus-TCP\FreeRTOS_DNS.o
                               0x1247 (size before relaxing)
 .debug_str     0x00008093     0x105e Middlewares\Third_Party\FreeRTOS-Plus\FreeRTOS-Plus-TCP\FreeRTOS_IP.o
                               0x233b (size before relaxing)
 .debug_str     0x000090f1      0x97d Middlewares\Third_Party\FreeRTOS-Plus\FreeRTOS-Plus-TCP\FreeRTOS_Sockets.o
                               0x1ff4 (size before relaxing)
 .debug_str     0x00009a6e       0x9f Middlewares\Third_Party\FreeRTOS-Plus\FreeRTOS-Plus-TCP\FreeRTOS_Stream_Buffer.o
                                0xa12 (size before relaxing)
 .debug_str     0x00009b0d      0x544 Middlewares\Third_Party\FreeRTOS-Plus\FreeRTOS-Plus-TCP\FreeRTOS_TCP_IP.o
                               0x1c01 (size before relaxing)
 .debug_str     0x0000a051      0x2ee Middlewares\Third_Party\FreeRTOS-Plus\FreeRTOS-Plus-TCP\FreeRTOS_TCP_WIN.o
                                0xfc5 (size before relaxing)
 .debug_str     0x0000a33f       0x4d Middlewares\Third_Party\FreeRTOS-Plus\FreeRTOS-Plus-TCP\FreeRTOS_UDP_IP.o
                               0x151f (size before relaxing)
 .debug_str     0x0000a38c      0x1a4 Middlewares\Third_Party\FreeRTOS-Plus\FreeRTOS-Plus-TCP\portable\BufferManagement\BufferAllocation_2.o
                                0xc39 (size before relaxing)
 .debug_str     0x0000a530       0x12 Src\freertos.o
                                0x220 (size before relaxing)
 .debug_str     0x0000a542       0xb3 Src\main.o
                               0x18e4 (size before relaxing)
 .debug_str     0x0000a5f5       0x1b Src\stm32f4xx_hal_msp.o
                                0xb22 (size before relaxing)
 .debug_str     0x0000a610       0x61 Src\stm32f4xx_hal_timebase_TIM.o
                               0x1084 (size before relaxing)
 .debug_str     0x0000a671       0xa4 Src\stm32f4xx_it.o
                                0xde2 (size before relaxing)
 .debug_str     0x0000a715       0x45 Src\system_stm32f4xx.o
                                0x7d6 (size before relaxing)

.comment        0x00000000       0x7c
 .comment       0x00000000       0x7c Drivers\STM32F4xx_HAL_Driver\Src\stm32f4xx_hal.o
                                 0x7d (size before relaxing)
 .comment       0x0000007c       0x7d Drivers\STM32F4xx_HAL_Driver\Src\stm32f4xx_hal_cortex.o
 .comment       0x0000007c       0x7d Drivers\STM32F4xx_HAL_Driver\Src\stm32f4xx_hal_gpio.o
 .comment       0x0000007c       0x7d Drivers\STM32F4xx_HAL_Driver\Src\stm32f4xx_hal_pcd.o
 .comment       0x0000007c       0x7d Drivers\STM32F4xx_HAL_Driver\Src\stm32f4xx_hal_pcd_ex.o
 .comment       0x0000007c       0x7d Drivers\STM32F4xx_HAL_Driver\Src\stm32f4xx_hal_rcc.o
 .comment       0x0000007c       0x7d Drivers\STM32F4xx_HAL_Driver\Src\stm32f4xx_hal_tim.o
 .comment       0x0000007c       0x7d Drivers\STM32F4xx_HAL_Driver\Src\stm32f4xx_hal_tim_ex.o
 .comment       0x0000007c       0x7d Drivers\STM32F4xx_HAL_Driver\Src\stm32f4xx_ll_usb.o
 .comment       0x0000007c       0x7d Middlewares\ST\STM32_USB_Device_Library\App\Src\usb_device.o
 .comment       0x0000007c       0x7d Middlewares\ST\STM32_USB_Device_Library\App\Src\usbd_conf.o
 .comment       0x0000007c       0x7d Middlewares\ST\STM32_USB_Device_Library\App\Src\usbd_desc.o
 .comment       0x0000007c       0x7d Middlewares\ST\STM32_USB_Device_Library\App\Src\usbd_rndis_if.o
 .comment       0x0000007c       0x7d Middlewares\ST\STM32_USB_Device_Library\Class\Composite\Src\usbd_composite.o
 .comment       0x0000007c       0x7d Middlewares\ST\STM32_USB_Device_Library\Class\RNDIS\Src\usbd_rndis.o
 .comment       0x0000007c       0x7d Middlewares\ST\STM32_USB_Device_Library\Core\Src\usbd_core.o
 .comment       0x0000007c       0x7d Middlewares\ST\STM32_USB_Device_Library\Core\Src\usbd_ctlreq.o
 .comment       0x0000007c       0x7d Middlewares\ST\STM32_USB_Device_Library\Core\Src\usbd_ioreq.o
 .comment       0x0000007c       0x7d Middlewares\Third_Party\FreeRTOS\Source\CMSIS_RTOS\cmsis_os.o
 .comment       0x0000007c       0x7d Middlewares\Third_Party\FreeRTOS\Source\event_groups.o
 .comment       0x0000007c       0x7d Middlewares\Third_Party\FreeRTOS\Source\list.o
 .comment       0x0000007c       0x7d Middlewares\Third_Party\FreeRTOS\Source\portable\GCC\ARM_CM4F\port.o
 .comment       0x0000007c       0x7d Middlewares\Third_Party\FreeRTOS\Source\portable\MemMang\heap_4.o
 .comment       0x0000007c       0x7d Middlewares\Third_Party\FreeRTOS\Source\queue.o
 .comment       0x0000007c       0x7d Middlewares\Third_Party\FreeRTOS\Source\tasks.o
 .comment       0x0000007c       0x7d Middlewares\Third_Party\FreeRTOS-Plus\FreeRTOS-Plus-TCP\FreeRTOS_ARP.o
 .comment       0x0000007c       0x7d Middlewares\Third_Party\FreeRTOS-Plus\FreeRTOS-Plus-TCP\FreeRTOS_DHCP.o
 .comment       0x0000007c       0x7d Middlewares\Third_Party\FreeRTOS-Plus\FreeRTOS-Plus-TCP\FreeRTOS_DNS.o
 .comment       0x0000007c       0x7d Middlewares\Third_Party\FreeRTOS-Plus\FreeRTOS-Plus-TCP\FreeRTOS_IP.o
 .comment       0x0000007c       0x7d Middlewares\Third_Party\FreeRTOS-Plus\FreeRTOS-Plus-TCP\FreeRTOS_Sockets.o
 .comment       0x0000007c       0x7d Middlewares\Third_Party\FreeRTOS-Plus\FreeRTOS-Plus-TCP\FreeRTOS_Stream_Buffer.o
 .comment       0x0000007c       0x7d Middlewares\Third_Party\FreeRTOS-Plus\FreeRTOS-Plus-TCP\FreeRTOS_TCP_IP.o
 .comment       0x0000007c       0x7d Middlewares\Third_Party\FreeRTOS-Plus\FreeRTOS-Plus-TCP\FreeRTOS_TCP_WIN.o
 .comment       0x0000007c       0x7d Middlewares\Third_Party\FreeRTOS-Plus\FreeRTOS-Plus-TCP\FreeRTOS_UDP_IP.o
 .comment       0x0000007c       0x7d Middlewares\Third_Party\FreeRTOS-Plus\FreeRTOS-Plus-TCP\portable\BufferManagement\BufferAllocation_2.o
 .comment       0x0000007c       0x7d Src\freertos.o
 .comment       0x0000007c       0x7d Src\main.o
 .comment       0x0000007c       0x7d Src\stm32f4xx_hal_msp.o
 .comment       0x0000007c       0x7d Src\stm32f4xx_hal_timebase_TIM.o
 .comment       0x0000007c       0x7d Src\stm32f4xx_it.o
 .comment       0x0000007c       0x7d Src\system_stm32f4xx.o

.debug_frame    0x00000000     0x4a30
 .debug_frame   0x00000000      0x1d0 Drivers\STM32F4xx_HAL_Driver\Src\stm32f4xx_hal.o
 .debug_frame   0x000001d0      0x158 Drivers\STM32F4xx_HAL_Driver\Src\stm32f4xx_hal_cortex.o
 .debug_frame   0x00000328       0xd8 Drivers\STM32F4xx_HAL_Driver\Src\stm32f4xx_hal_gpio.o
 .debug_frame   0x00000400      0x2c4 Drivers\STM32F4xx_HAL_Driver\Src\stm32f4xx_hal_pcd.o
 .debug_frame   0x000006c4       0x3c Drivers\STM32F4xx_HAL_Driver\Src\stm32f4xx_hal_pcd_ex.o
 .debug_frame   0x00000700      0x13c Drivers\STM32F4xx_HAL_Driver\Src\stm32f4xx_hal_rcc.o
 .debug_frame   0x0000083c      0x854 Drivers\STM32F4xx_HAL_Driver\Src\stm32f4xx_hal_tim.o
 .debug_frame   0x00001090      0x330 Drivers\STM32F4xx_HAL_Driver\Src\stm32f4xx_hal_tim_ex.o
 .debug_frame   0x000013c0      0x468 Drivers\STM32F4xx_HAL_Driver\Src\stm32f4xx_ll_usb.o
 .debug_frame   0x00001828       0x2c Middlewares\ST\STM32_USB_Device_Library\App\Src\usb_device.o
 .debug_frame   0x00001854      0x288 Middlewares\ST\STM32_USB_Device_Library\App\Src\usbd_conf.o
 .debug_frame   0x00001adc       0xa8 Middlewares\ST\STM32_USB_Device_Library\App\Src\usbd_desc.o
 .debug_frame   0x00001b84      0x118 Middlewares\ST\STM32_USB_Device_Library\App\Src\usbd_rndis_if.o
 .debug_frame   0x00001c9c      0x224 Middlewares\ST\STM32_USB_Device_Library\Class\Composite\Src\usbd_composite.o
 .debug_frame   0x00001ec0      0x164 Middlewares\ST\STM32_USB_Device_Library\Class\RNDIS\Src\usbd_rndis.o
 .debug_frame   0x00002024      0x1c0 Middlewares\ST\STM32_USB_Device_Library\Core\Src\usbd_core.o
 .debug_frame   0x000021e4       0xcc Middlewares\ST\STM32_USB_Device_Library\Core\Src\usbd_ctlreq.o
 .debug_frame   0x000022b0       0xb8 Middlewares\ST\STM32_USB_Device_Library\Core\Src\usbd_ioreq.o
 .debug_frame   0x00002368      0x4d8 Middlewares\Third_Party\FreeRTOS\Source\CMSIS_RTOS\cmsis_os.o
 .debug_frame   0x00002840      0x100 Middlewares\Third_Party\FreeRTOS\Source\event_groups.o
 .debug_frame   0x00002940       0x6c Middlewares\Third_Party\FreeRTOS\Source\list.o
 .debug_frame   0x000029ac       0xf0 Middlewares\Third_Party\FreeRTOS\Source\portable\GCC\ARM_CM4F\port.o
 .debug_frame   0x00002a9c       0x98 Middlewares\Third_Party\FreeRTOS\Source\portable\MemMang\heap_4.o
 .debug_frame   0x00002b34      0x27c Middlewares\Third_Party\FreeRTOS\Source\queue.o
 .debug_frame   0x00002db0      0x4b0 Middlewares\Third_Party\FreeRTOS\Source\tasks.o
 .debug_frame   0x00003260       0xf4 Middlewares\Third_Party\FreeRTOS-Plus\FreeRTOS-Plus-TCP\FreeRTOS_ARP.o
 .debug_frame   0x00003354      0x120 Middlewares\Third_Party\FreeRTOS-Plus\FreeRTOS-Plus-TCP\FreeRTOS_DHCP.o
 .debug_frame   0x00003474      0x10c Middlewares\Third_Party\FreeRTOS-Plus\FreeRTOS-Plus-TCP\FreeRTOS_DNS.o
 .debug_frame   0x00003580      0x34c Middlewares\Third_Party\FreeRTOS-Plus\FreeRTOS-Plus-TCP\FreeRTOS_IP.o
 .debug_frame   0x000038cc      0x52c Middlewares\Third_Party\FreeRTOS-Plus\FreeRTOS-Plus-TCP\FreeRTOS_Sockets.o
 .debug_frame   0x00003df8       0x58 Middlewares\Third_Party\FreeRTOS-Plus\FreeRTOS-Plus-TCP\FreeRTOS_Stream_Buffer.o
 .debug_frame   0x00003e50      0x1b8 Middlewares\Third_Party\FreeRTOS-Plus\FreeRTOS-Plus-TCP\FreeRTOS_TCP_IP.o
 .debug_frame   0x00004008      0x230 Middlewares\Third_Party\FreeRTOS-Plus\FreeRTOS-Plus-TCP\FreeRTOS_TCP_WIN.o
 .debug_frame   0x00004238       0x60 Middlewares\Third_Party\FreeRTOS-Plus\FreeRTOS-Plus-TCP\FreeRTOS_UDP_IP.o
 .debug_frame   0x00004298       0xdc Middlewares\Third_Party\FreeRTOS-Plus\FreeRTOS-Plus-TCP\portable\BufferManagement\BufferAllocation_2.o
 .debug_frame   0x00004374       0x30 Src\freertos.o
 .debug_frame   0x000043a4      0x100 Src\main.o
 .debug_frame   0x000044a4       0x2c Src\stm32f4xx_hal_msp.o
 .debug_frame   0x000044d0       0x54 Src\stm32f4xx_hal_timebase_TIM.o
 .debug_frame   0x00004524       0x90 Src\stm32f4xx_it.o
 .debug_frame   0x000045b4       0x38 Src\system_stm32f4xx.o
 .debug_frame   0x000045ec       0x2c c:/program files (x86)/atollic/truestudio for stm32 9.0.0/armtools/bin/../lib/gcc/arm-atollic-eabi/6.3.1/../../../../arm-atollic-eabi/lib/armv7e-m/fpu\libc_nano.a(lib_a-init.o)
 .debug_frame   0x00004618       0x30 c:/program files (x86)/atollic/truestudio for stm32 9.0.0/armtools/bin/../lib/gcc/arm-atollic-eabi/6.3.1/../../../../arm-atollic-eabi/lib/armv7e-m/fpu\libc_nano.a(lib_a-malloc.o)
 .debug_frame   0x00004648       0x28 c:/program files (x86)/atollic/truestudio for stm32 9.0.0/armtools/bin/../lib/gcc/arm-atollic-eabi/6.3.1/../../../../arm-atollic-eabi/lib/armv7e-m/fpu\libc_nano.a(lib_a-memcmp.o)
 .debug_frame   0x00004670       0x28 c:/program files (x86)/atollic/truestudio for stm32 9.0.0/armtools/bin/../lib/gcc/arm-atollic-eabi/6.3.1/../../../../arm-atollic-eabi/lib/armv7e-m/fpu\libc_nano.a(lib_a-memcpy-stub.o)
 .debug_frame   0x00004698       0x28 c:/program files (x86)/atollic/truestudio for stm32 9.0.0/armtools/bin/../lib/gcc/arm-atollic-eabi/6.3.1/../../../../arm-atollic-eabi/lib/armv7e-m/fpu\libc_nano.a(lib_a-memmove.o)
 .debug_frame   0x000046c0       0x20 c:/program files (x86)/atollic/truestudio for stm32 9.0.0/armtools/bin/../lib/gcc/arm-atollic-eabi/6.3.1/../../../../arm-atollic-eabi/lib/armv7e-m/fpu\libc_nano.a(lib_a-memset.o)
 .debug_frame   0x000046e0       0x38 c:/program files (x86)/atollic/truestudio for stm32 9.0.0/armtools/bin/../lib/gcc/arm-atollic-eabi/6.3.1/../../../../arm-atollic-eabi/lib/armv7e-m/fpu\libc_nano.a(lib_a-nano-freer.o)
 .debug_frame   0x00004718       0x2c c:/program files (x86)/atollic/truestudio for stm32 9.0.0/armtools/bin/../lib/gcc/arm-atollic-eabi/6.3.1/../../../../arm-atollic-eabi/lib/armv7e-m/fpu\libc_nano.a(lib_a-nano-mallocr.o)
 .debug_frame   0x00004744       0x44 c:/program files (x86)/atollic/truestudio for stm32 9.0.0/armtools/bin/../lib/gcc/arm-atollic-eabi/6.3.1/../../../../arm-atollic-eabi/lib/armv7e-m/fpu\libc_nano.a(lib_a-rand.o)
 .debug_frame   0x00004788       0x2c c:/program files (x86)/atollic/truestudio for stm32 9.0.0/armtools/bin/../lib/gcc/arm-atollic-eabi/6.3.1/../../../../arm-atollic-eabi/lib/armv7e-m/fpu\libc_nano.a(lib_a-sbrkr.o)
 .debug_frame   0x000047b4       0x30 c:/program files (x86)/atollic/truestudio for stm32 9.0.0/armtools/bin/../lib/gcc/arm-atollic-eabi/6.3.1/../../../../arm-atollic-eabi/lib/armv7e-m/fpu\libc_nano.a(lib_a-strcasecmp.o)
 .debug_frame   0x000047e4       0x28 c:/program files (x86)/atollic/truestudio for stm32 9.0.0/armtools/bin/../lib/gcc/arm-atollic-eabi/6.3.1/../../../../arm-atollic-eabi/lib/armv7e-m/fpu\libc_nano.a(lib_a-strncmp.o)
 .debug_frame   0x0000480c       0x2c c:/program files (x86)/atollic/truestudio for stm32 9.0.0/armtools/bin/../lib/gcc/arm-atollic-eabi/6.3.1/../../../../arm-atollic-eabi/lib/armv7e-m/fpu\libc_nano.a(lib_a-strncpy.o)
 .debug_frame   0x00004838       0x68 c:/program files (x86)/atollic/truestudio for stm32 9.0.0/armtools/bin/../lib/gcc/arm-atollic-eabi/6.3.1/../../../../arm-atollic-eabi/lib/armv7e-m/fpu\libc_nano.a(lib_a-locale.o)
 .debug_frame   0x000048a0       0x48 c:/program files (x86)/atollic/truestudio for stm32 9.0.0/armtools/bin/../lib/gcc/arm-atollic-eabi/6.3.1/../../../../arm-atollic-eabi/lib/armv7e-m/fpu\libc_nano.a(lib_a-mbtowc_r.o)
 .debug_frame   0x000048e8       0x30 c:/program files (x86)/atollic/truestudio for stm32 9.0.0/armtools/bin/../lib/gcc/arm-atollic-eabi/6.3.1/../../../../arm-atollic-eabi/lib/armv7e-m/fpu\libc_nano.a(lib_a-mlock.o)
 .debug_frame   0x00004918       0x5c c:/program files (x86)/atollic/truestudio for stm32 9.0.0/armtools/bin/../lib/gcc/arm-atollic-eabi/6.3.1/../../../../arm-atollic-eabi/lib/armv7e-m/fpu\libc_nano.a(lib_a-reent.o)
 .debug_frame   0x00004974       0x3c c:/program files (x86)/atollic/truestudio for stm32 9.0.0/armtools/bin/../lib/gcc/arm-atollic-eabi/6.3.1/../../../../arm-atollic-eabi/lib/armv7e-m/fpu\libc_nano.a(lib_a-wctomb_r.o)
 .debug_frame   0x000049b0       0x2c c:/program files (x86)/atollic/truestudio for stm32 9.0.0/armtools/bin/../lib/gcc/arm-atollic-eabi/6.3.1/armv7e-m/fpu\libgcc.a(_aeabi_uldivmod.o)
 .debug_frame   0x000049dc       0x34 c:/program files (x86)/atollic/truestudio for stm32 9.0.0/armtools/bin/../lib/gcc/arm-atollic-eabi/6.3.1/armv7e-m/fpu\libgcc.a(_udivmoddi4.o)
 .debug_frame   0x00004a10       0x20 c:/program files (x86)/atollic/truestudio for stm32 9.0.0/armtools/bin/../lib/gcc/arm-atollic-eabi/6.3.1/../../../../arm-atollic-eabi/lib/armv7e-m/fpu\libnosys.a(sbrk.o)
